ARM Linker, 5.03 [Build 76] [MDK-ARM Professional]

==============================================================================

Section Cross References

    main.o(.text) refers to _printf_pad.o(.text) for _printf_pre_padding
    main.o(.text) refers to _printf_percent.o(.ARM.Collect$$_printf_percent$$00000000) for _printf_percent
    main.o(.text) refers to _printf_x.o(.ARM.Collect$$_printf_percent$$0000000C) for _printf_x
    main.o(.text) refers to _printf_hex_int.o(.text) for _printf_longlong_hex
    main.o(.text) refers to sys_uart.o(.text) for sysprintf
    main.o(.text) refers to sys.o(.text) for sysGetClock
    main.o(.text) refers to main.o(.constdata) for .constdata
    main.o(.text) refers to quentelmodemlib.o(.text) for QModemFtpStageIndex
    main.o(.text) refers to paralib.o(.text) for GetMeterPara
    main.o(.text) refers to tarifflib.o(.text) for TariffGetFileName
    main.o(.text) refers to osmisc.o(.text) for _showFreeHeapSize
    main.o(.text) refers to fileagent.o(.text) for FileAgentFatfsListFile
    main.o(.text) refers to meterdata.o(.text) for MeterUpdateLedHeartbeat
    main.o(.text) refers to leddrv.o(.text) for LedSetColor
    main.o(.text) refers to flashdrvex.o(.text) for FlashDrvExChipErase
    main.o(.text) refers to atcmdparser.o(.text) for ATCmdSetReceiveDebugFlag
    main.o(.text) refers to rtc.o(.text) for RTC_EnableClock
    main.o(.text) refers to main.o(.data) for mInitFunctionList
    main.o(.text) refers to loglib.o(.text) for LoglibPrintf
    main.o(.text) refers to dataprocesslib.o(.text) for DataProcessSendStatusData
    main.o(.text) refers to __2sprintf.o(.text) for __2sprintf
    main.o(.text) refers to modemagent.o(.text) for ModemAgentStartSend
    main.o(.text) refers to epddrv.o(.text) for EPDShowBGScreen
    main.o(.text) refers to buzzerdrv.o(.text) for BuzzerPlay
    main.o(.text) refers to tasks.o(.text) for vTaskDelay
    main.o(.text) refers to system_nuc970.o(.text) for sysDisableCache
    main.o(.text) refers to adc.o(.text) for adcOpen
    main.o(.data) refers to main.o(.conststring) for .conststring
    main.o(.data) refers to userdrv.o(.text) for UserDrvInit
    sys.o(.text) refers to sys_uart.o(.text) for sysprintf
    sys.o(.text) refers to sys.o(.data) for sysIrqHandlerTable
    sys.o(.text) refers to aeabi_sdiv.o(.text_udiv) for __aeabi_uidivmod
    sys.o(.data) refers to sys.o(.text) for SYS_Interrupt_Shell
    sys_timer.o(.text) refers to sys.o(.text) for sysInstallISR
    sys_timer.o(.text) refers to aeabi_sdiv.o(.text_udiv) for __aeabi_uidivmod
    sys_timer.o(.text) refers to sys_timer.o(.data) for _sys_uTimer0Count
    sys_timer.o(.text) refers to sys_timer.o(.bss) for tTime0Event
    sys_uart.o(.text) refers to aeabi_sdiv.o(.text_udiv) for __aeabi_uidivmod
    sys_uart.o(.text) refers to strlen.o(.text) for strlen
    system_nuc970.o(.text) refers to sys_nuc970.o(SYS_INIT) for sysSetupCP15
    system_nuc970.o(.text) refers to system_nuc970.o(.data) for _sys_IsCacheOn
    system_nuc970.o(.text) refers to system_nuc970.o(.bss) for _mmuCoarsePageTable_NonCache
    startup_nuc970.o(NUC_INIT) refers to portasm.o(PORT_ASM) for vPortYieldProcessor
    startup_nuc970.o(NUC_INIT) refers to __main.o(!!!main) for __main
    uart.o(.text) refers to queue.o(.text) for xQueueGiveFromISR
    uart.o(.text) refers to tasks.o(.text) for vTaskSwitchContext
    uart.o(.text) refers to uart.o(.data) for UARTRXBUFSIZE
    uart.o(.text) refers to uart.o(.bss) for UART_DEV
    uart.o(.text) refers to aeabi_sdiv.o(.text_udiv) for __aeabi_uidivmod
    uart.o(.text) refers to sys.o(.text) for sysInstallISR
    uart.o(.text) refers to heap_4.o(.text) for pvPortMalloc
    uart.o(.text) refers to h1_free.o(.text) for free
    uart.o(.text) refers to rt_memclr.o(.text) for __aeabi_memclr
    uart.o(.text) refers to rt_memclr_w.o(.text) for __aeabi_memclr4
    uart.o(.text) refers to sys_uart.o(.text) for sysprintf
    uart.o(.text) refers to rt_memcpy.o(.text) for __aeabi_memcpy
    gpio.o(.text) refers to sys.o(.text) for sysInstallISR
    gpio.o(.text) refers to gpio.o(.bss) for gpioCfg
    gpio.o(.text) refers to gpio.o(.data) for maskTbl
    rtc.o(.text) refers to aeabi_sdiv.o(.text) for __aeabi_idivmod
    rtc.o(.text) refers to sys.o(.text) for sysInstallISR
    rtc.o(.text) refers to aeabi_sdiv.o(.text_udiv) for __aeabi_uidivmod
    rtc.o(.text) refers to rtc.o(.data) for i
    spi.o(.text) refers to aeabi_sdiv.o(.text_udiv) for __aeabi_uidivmod
    spi.o(.text) refers to aeabi_sdiv.o(.text) for __aeabi_idivmod
    spi.o(.text) refers to sys.o(.text) for sysInstallISR
    spi.o(.text) refers to spi.o(.bss) for spi_device
    i2c.o(.text) refers to aeabi_sdiv.o(.text) for __aeabi_idivmod
    i2c.o(.text) refers to sys_uart.o(.text) for sysprintf
    i2c.o(.text) refers to i2c.o(.data) for bNackValid
    i2c.o(.text) refers to i2c.o(.bss) for i2c_device
    i2c.o(.text) refers to queue.o(.text) for xQueueGenericReceive
    i2c.o(.text) refers to rt_memclr_w.o(.text) for __aeabi_memclr4
    i2c.o(.text) refers to sys.o(.text) for sysDisableInterrupt
    i2c.o(.text) refers to rt_memcpy.o(.text) for __aeabi_memcpy
    sdh.o(.text) refers to sys_uart.o(.text) for sysprintf
    sdh.o(.text) refers to aeabi_sdiv.o(.text_udiv) for __aeabi_uidivmod
    sdh.o(.text) refers to sdh.o(.data) for _sd_uR7_CMD
    sdh.o(.text) refers to sdh.o(.constdata) for .constdata
    sdh.o(.text) refers to rt_memclr_w.o(.text) for __aeabi_memclr4
    sdh.o(.text) refers to sdh.o(.bss) for _sd_ucSDHCBuffer
    pwm.o(.text) refers to sys.o(.text) for sysInstallISR
    pwm.o(.text) refers to pwm.o(.data) for bPWMIntFlag
    adc.o(.text) refers to sys.o(.text) for sysSetInterruptType
    adc.o(.text) refers to adc.o(.bss) for adcHandler
    adc.o(.text) refers to adc.o(.data) for mst_complete
    etimer.o(.text) refers to sys.o(.text) for sysGetClock
    etimer.o(.text) refers to aeabi_sdiv.o(.text_udiv) for __aeabi_uidivmod
    etimer.o(.text) refers to fflt_clz.o(x$fpl$ffltu) for __aeabi_ui2f
    etimer.o(.text) refers to fmul.o(x$fpl$fmul) for __aeabi_fmul
    etimer.o(.text) refers to f2d.o(x$fpl$f2d) for __aeabi_f2d
    etimer.o(.text) refers to ddiv.o(x$fpl$ddiv) for __aeabi_ddiv
    etimer.o(.text) refers to d2f.o(x$fpl$d2f) for __aeabi_d2f
    etimer.o(.text) refers to ffixu.o(x$fpl$ffixu) for __aeabi_f2uiz
    user.o(.text) refers to sys_uart.o(.text) for sysprintf
    user.o(.text) refers to user.o(.data) for mUserInitFunctionList
    user.o(.data) refers to user.o(.conststring) for .conststring
    user.o(.data) refers to meterdata.o(.text) for MeterDataInit
    guistandby.o(.text) refers to tasks.o(.text) for xTaskGetTickCount
    guistandby.o(.text) refers to sys_uart.o(.text) for sysprintf
    guistandby.o(.text) refers to meterdata.o(.text) for GetMeterData
    guistandby.o(.text) refers to epddrv.o(.text) for EPDDrawItem
    guistandby.o(.text) refers to halinterface.o(.text) for GuiGetInterface
    guistandby.o(.text) refers to powerdrv.o(.text) for PowerDrvSetEnable
    guistandby.o(.text) refers to cardreader.o(.text) for CardReaderSetPower
    guistandby.o(.text) refers to guistandby.o(.data) for refreshType
    guistandby.o(.text) refers to guistandby.o(.constdata) for .constdata
    guistandby.o(.text) refers to paralib.o(.text) for GetMeterPara
    guistandby.o(.text) refers to uread4.o(.text) for __aeabi_uread4
    guistandby.o(.text) refers to tarifflib.o(.text) for TariffGetCurrentTariffType
    guistandby.o(.text) refers to guimanager.o(.text) for GuiManagerShowScreen
    guistandby.o(.text) refers to spacedrv.o(.text) for StartSpaceDrv
    guimanager.o(.text) refers to sys_uart.o(.text) for sysprintf
    guimanager.o(.text) refers to queue.o(.text) for xQueueGenericReceive
    guimanager.o(.text) refers to guidrv.o(.text) for GuiSetInstance
    guimanager.o(.text) refers to meterdata.o(.text) for GetMeterData
    guimanager.o(.text) refers to epddrv.o(.text) for EPDSetReinitCallbackFunc
    guimanager.o(.text) refers to guimanager.o(.data) for pCurrentGuiInstance
    guimanager.o(.data) refers to guistandby.o(.text) for GuiStandbyOnDraw
    guimanager.o(.data) refers to guiselspace.o(.text) for GuiSelSpaceOnDraw
    guimanager.o(.data) refers to guiseltime.o(.text) for GuiSelTimeOnDraw
    guimanager.o(.data) refers to guireaderinit.o(.text) for GuiReaderInitOnDraw
    guimanager.o(.data) refers to guideposit.o(.text) for GuiDepositOnDraw
    guimanager.o(.data) refers to guidepositok.o(.text) for GuiDepositOKOnDraw
    guimanager.o(.data) refers to guidepositfail.o(.text) for GuiDepositFailOnDraw
    guimanager.o(.data) refers to guireplacebp.o(.text) for GuiReplaceBPOnDraw
    guimanager.o(.data) refers to guitester.o(.text) for GuiTesterOnDraw
    guimanager.o(.data) refers to guitesterkeypad.o(.text) for GuiTesterKeypadOnDraw
    guimanager.o(.data) refers to guifiledownload.o(.text) for GuiFileDownloadOnDraw
    guimanager.o(.data) refers to guifree.o(.text) for GuiFreeOnDraw
    guimanager.o(.data) refers to guioff.o(.text) for GuiOffOnDraw
    meterdata.o(.text) refers to _printf_pad.o(.text) for _printf_pre_padding
    meterdata.o(.text) refers to _printf_percent.o(.ARM.Collect$$_printf_percent$$00000000) for _printf_percent
    meterdata.o(.text) refers to _printf_d.o(.ARM.Collect$$_printf_percent$$00000009) for _printf_d
    meterdata.o(.text) refers to _printf_s.o(.ARM.Collect$$_printf_percent$$00000014) for _printf_s
    meterdata.o(.text) refers to _printf_dec.o(.text) for _printf_int_dec
    meterdata.o(.text) refers to _printf_str.o(.text) for _printf_str
    meterdata.o(.text) refers to tasks.o(.text) for vTaskDelay
    meterdata.o(.text) refers to queue.o(.text) for xQueueGenericSend
    meterdata.o(.text) refers to paralib.o(.text) for GetMeterPara
    meterdata.o(.text) refers to uread4.o(.text) for __aeabi_uread4
    meterdata.o(.text) refers to spacedrv.o(.text) for GetSpaceStatus
    meterdata.o(.text) refers to tarifflib.o(.text) for TariffUpdateCurrentTariffData
    meterdata.o(.text) refers to guimanager.o(.text) for GuiManagerCompareCurrentScreenId
    meterdata.o(.text) refers to leddrv.o(.text) for LedSendHeartbeat
    meterdata.o(.text) refers to photoagent.o(.text) for PhotoAgentStartTakePhoto
    meterdata.o(.text) refers to rtc.o(.text) for RTC_Read
    meterdata.o(.text) refers to aeabi_sdiv.o(.text_udiv) for __aeabi_uidivmod
    meterdata.o(.text) refers to __2sprintf.o(.text) for __2sprintf
    meterdata.o(.text) refers to dataprocesslib.o(.text) for DataProcessSendData
    meterdata.o(.text) refers to timelib.o(.text) for Time2RTC
    meterdata.o(.text) refers to jsoncmdlib.o(.text) for JsonCmdCreateTransactionStatusData
    meterdata.o(.text) refers to cjson.o(.text) for cJSON_PrintUnformatted
    meterdata.o(.text) refers to strlen.o(.text) for strlen
    meterdata.o(.text) refers to fileagent.o(.text) for FileAgentAddData
    meterdata.o(.text) refers to meterdata.o(.data) for meterDataPowerStatus
    meterdata.o(.text) refers to meterdata.o(.bss) for meterData
    meterdata.o(.text) refers to modemagent.o(.text) for ModemAgentStartSend
    meterdata.o(.text) refers to sys_uart.o(.text) for sysprintf
    meterdata.o(.text) refers to epddrv.o(.text) for SetDepositTimeBmpIdInfo
    meterdata.o(.text) refers to uwrite4.o(.text) for __aeabi_uwrite4
    meterdata.o(.text) refers to loglib.o(.text) for LoglibPrintf
    meterdata.o(.text) refers to buzzerdrv.o(.text) for BuzzerPlay
    meterdata.o(.text) refers to flashdrvex.o(.text) for FlashDrvExGetErrorTimes
    meterdata.o(.text) refers to gpio.o(.text) for GPIO_ReadPort
    meterdata.o(.text) refers to meterdata.o(.constdata) for .constdata
    meterdata.o(.text) refers to powerdrv.o(.text) for PowerRegCallback
    meterdata.o(.text) refers to strcpy.o(.text) for strcpy
    meterdata.o(.data) refers to meterdata.o(.conststring) for .conststring
    meterdata.o(.data) refers to meterdata.o(.text) for updateTariffDataRoutine
    guiselspace.o(.text) refers to tasks.o(.text) for xTaskGetTickCount
    guiselspace.o(.text) refers to sys_uart.o(.text) for sysprintf
    guiselspace.o(.text) refers to meterdata.o(.text) for GetMeterData
    guiselspace.o(.text) refers to epddrv.o(.text) for EPDDrawItem
    guiselspace.o(.text) refers to halinterface.o(.text) for GuiGetInterface
    guiselspace.o(.text) refers to cardreader.o(.text) for CardReaderSetPower
    guiselspace.o(.text) refers to tarifflib.o(.text) for TariffUpdateCurrentTariffData
    guiselspace.o(.text) refers to guiselspace.o(.data) for refreshType
    guiselspace.o(.text) refers to guiselspace.o(.constdata) for .constdata
    guiselspace.o(.text) refers to guimanager.o(.text) for GuiManagerShowScreen
    guiseltime.o(.text) refers to tasks.o(.text) for xTaskGetTickCount
    guiseltime.o(.text) refers to epddrv.o(.text) for EPDDrawContainSelTime
    guiseltime.o(.text) refers to meterdata.o(.text) for GetMeterData
    guiseltime.o(.text) refers to sys_uart.o(.text) for sysprintf
    guiseltime.o(.text) refers to halinterface.o(.text) for GuiGetInterface
    guiseltime.o(.text) refers to cardreader.o(.text) for CardReaderSetPower
    guiseltime.o(.text) refers to guimanager.o(.text) for GuiManagerShowScreen
    guiseltime.o(.text) refers to tarifflib.o(.text) for TariffGetCurrentTariffType
    guiseltime.o(.text) refers to guiseltime.o(.data) for tickStart
    guiseltime.o(.text) refers to guiseltime.o(.constdata) for .constdata
    guireaderinit.o(.text) refers to tasks.o(.text) for xTaskGetTickCount
    guireaderinit.o(.text) refers to epddrv.o(.text) for EPDDrawContainByID
    guireaderinit.o(.text) refers to sys_uart.o(.text) for sysprintf
    guireaderinit.o(.text) refers to cardreader.o(.text) for CardReaderGetBootedStatus
    guireaderinit.o(.text) refers to buzzerdrv.o(.text) for BuzzerPlay
    guireaderinit.o(.text) refers to guimanager.o(.text) for GuiManagerShowScreen
    guireaderinit.o(.text) refers to halinterface.o(.text) for GuiGetInterface
    guireaderinit.o(.text) refers to meterdata.o(.text) for UpdateMeterCurrentSelSpace
    guireaderinit.o(.text) refers to guireaderinit.o(.data) for tickStart
    guireaderinit.o(.text) refers to guireaderinit.o(.constdata) for .constdata
    guideposit.o(.text) refers to _printf_percent.o(.ARM.Collect$$_printf_percent$$00000000) for _printf_percent
    guideposit.o(.text) refers to _printf_d.o(.ARM.Collect$$_printf_percent$$00000009) for _printf_d
    guideposit.o(.text) refers to _printf_dec.o(.text) for _printf_int_dec
    guideposit.o(.text) refers to tasks.o(.text) for xTaskGetTickCount
    guideposit.o(.text) refers to epddrv.o(.text) for EPDDrawContainByID
    guideposit.o(.text) refers to sys_uart.o(.text) for sysprintf
    guideposit.o(.text) refers to meterdata.o(.text) for GetMeterData
    guideposit.o(.text) refers to buzzerdrv.o(.text) for BuzzerPlay
    guideposit.o(.text) refers to rtc.o(.text) for RTC_Read
    guideposit.o(.text) refers to timelib.o(.text) for RTC2Time
    guideposit.o(.text) refers to paralib.o(.text) for GetMeterStorageData
    guideposit.o(.text) refers to uread4.o(.text) for __aeabi_uread4
    guideposit.o(.text) refers to uwrite4.o(.text) for __aeabi_uwrite4
    guideposit.o(.text) refers to guimanager.o(.text) for GuiManagerShowScreen
    guideposit.o(.text) refers to dataprocesslib.o(.text) for DataProcessSendData
    guideposit.o(.text) refers to modemagent.o(.text) for ModemAgentStartSend
    guideposit.o(.text) refers to photoagent.o(.text) for PhotoAgentStartTakePhoto
    guideposit.o(.text) refers to __2sprintf.o(.text) for __2sprintf
    guideposit.o(.text) refers to loglib.o(.text) for LoglibPrintf
    guideposit.o(.text) refers to guideposit.o(.data) for tickStart
    guideposit.o(.text) refers to guideposit.o(.constdata) for .constdata
    guideposit.o(.text) refers to aeabi_sdiv.o(.text) for __aeabi_idivmod
    guideposit.o(.text) refers to cardreader.o(.text) for CardReaderProcess
    guideposit.o(.text) refers to halinterface.o(.text) for GuiGetInterface
    guidepositfail.o(.text) refers to tasks.o(.text) for xTaskGetTickCount
    guidepositfail.o(.text) refers to epddrv.o(.text) for EPDDrawContainByID
    guidepositfail.o(.text) refers to sys_uart.o(.text) for sysprintf
    guidepositfail.o(.text) refers to halinterface.o(.text) for GuiGetInterface
    guidepositfail.o(.text) refers to meterdata.o(.text) for UpdateMeterCurrentSelSpace
    guidepositfail.o(.text) refers to guimanager.o(.text) for GuiManagerShowScreen
    guidepositfail.o(.text) refers to guidepositfail.o(.data) for tickStart
    guidepositfail.o(.text) refers to guidepositfail.o(.constdata) for .constdata
    guidepositok.o(.text) refers to tasks.o(.text) for xTaskGetTickCount
    guidepositok.o(.text) refers to epddrv.o(.text) for EPDDrawContainByID
    guidepositok.o(.text) refers to sys_uart.o(.text) for sysprintf
    guidepositok.o(.text) refers to halinterface.o(.text) for GuiGetInterface
    guidepositok.o(.text) refers to meterdata.o(.text) for UpdateMeterCurrentSelSpace
    guidepositok.o(.text) refers to guimanager.o(.text) for GuiManagerShowScreen
    guidepositok.o(.text) refers to guidepositok.o(.data) for balanceMoney
    guidepositok.o(.text) refers to guidepositok.o(.constdata) for .constdata
    guireplacebp.o(.text) refers to batterydrv.o(.text) for BatteryGetStatus
    guireplacebp.o(.text) refers to epddrv.o(.text) for ShowBatteryStatus
    guireplacebp.o(.text) refers to tasks.o(.text) for xTaskGetTickCount
    guireplacebp.o(.text) refers to sys_uart.o(.text) for sysprintf
    guireplacebp.o(.text) refers to halinterface.o(.text) for GuiGetInterface
    guireplacebp.o(.text) refers to leddrv.o(.text) for LedSetMode
    guireplacebp.o(.text) refers to guimanager.o(.text) for GuiManagerShowScreen
    guireplacebp.o(.text) refers to guireplacebp.o(.data) for tickStart
    guireplacebp.o(.text) refers to guireplacebp.o(.constdata) for .constdata
    guitester.o(.text) refers to tasks.o(.text) for xTaskGetTickCount
    guitester.o(.text) refers to epddrv.o(.text) for EPDShowBGScreen
    guitester.o(.text) refers to sys_uart.o(.text) for sysprintf
    guitester.o(.text) refers to halinterface.o(.text) for GuiGetInterface
    guitester.o(.text) refers to leddrv.o(.text) for LedSetMode
    guitester.o(.text) refers to guimanager.o(.text) for GuiManagerShowScreen
    guitester.o(.text) refers to guitester.o(.data) for tickStart
    guitester.o(.text) refers to guitester.o(.constdata) for .constdata
    guitesterkeypad.o(.text) refers to tasks.o(.text) for xTaskGetTickCount
    guitesterkeypad.o(.text) refers to epddrv.o(.text) for EPDShowBGScreen
    guitesterkeypad.o(.text) refers to sys_uart.o(.text) for sysprintf
    guitesterkeypad.o(.text) refers to halinterface.o(.text) for GuiGetInterface
    guitesterkeypad.o(.text) refers to keydrv.o(.text) for KeyDrvSetMode
    guitesterkeypad.o(.text) refers to guimanager.o(.text) for GuiManagerShowScreen
    guitesterkeypad.o(.text) refers to guitesterkeypad.o(.data) for tickStart
    guitesterkeypad.o(.text) refers to guitesterkeypad.o(.constdata) for .constdata
    paralib.o(.text) refers to sys_uart.o(.text) for sysprintf
    paralib.o(.text) refers to uread4.o(.text) for __aeabi_uread4
    paralib.o(.text) refers to rt_memclr.o(.text) for __aeabi_memclr
    paralib.o(.text) refers to paralib.o(.bss) for meterStorageData
    paralib.o(.text) refers to paralib.o(.constdata) for .constdata
    paralib.o(.text) refers to fileagent.o(.text) for FileAgentGetData
    paralib.o(.text) refers to rt_memcpy.o(.text) for __aeabi_memcpy
    paralib.o(.text) refers to heap_4.o(.text) for vPortFree
    paralib.o(.text) refers to queue.o(.text) for xQueueCreateMutex
    paralib.o(.text) refers to uwrite4.o(.text) for __aeabi_uwrite4
    paralib.o(.text) refers to cjson.o(.text) for cJSON_Parse
    paralib.o(.text) refers to paralib.o(.data) for xSemaphore
    paralib.o(.text) refers to strcpy.o(.text) for strcpy
    paralib.o(.text) refers to epddrv.o(.text) for calculatePreparePositionInfo
    paralib.o(.text) refers to meterdata.o(.text) for GetMeterData
    guifiledownload.o(.text) refers to tasks.o(.text) for xTaskGetTickCount
    guifiledownload.o(.text) refers to epddrv.o(.text) for EPDShowBGScreen
    guifiledownload.o(.text) refers to sys_uart.o(.text) for sysprintf
    guifiledownload.o(.text) refers to tarifflib.o(.text) for TariffGetFileName
    guifiledownload.o(.text) refers to strlen.o(.text) for strlen
    guifiledownload.o(.text) refers to paralib.o(.text) for GetMeterPara
    guifiledownload.o(.text) refers to guimanager.o(.text) for GuiManagerShowScreen
    guifiledownload.o(.text) refers to halinterface.o(.text) for GuiGetInterface
    guifiledownload.o(.text) refers to guifiledownload.o(.data) for tickStart
    guifiledownload.o(.text) refers to guifiledownload.o(.constdata) for .constdata
    guifree.o(.text) refers to tasks.o(.text) for xTaskGetTickCount
    guifree.o(.text) refers to epddrv.o(.text) for EPDShowBGScreen
    guifree.o(.text) refers to sys_uart.o(.text) for sysprintf
    guifree.o(.text) refers to halinterface.o(.text) for GuiGetInterface
    guifree.o(.text) refers to guifree.o(.data) for tickStart
    guifree.o(.text) refers to guifree.o(.constdata) for .constdata
    guioff.o(.text) refers to tasks.o(.text) for xTaskGetTickCount
    guioff.o(.text) refers to epddrv.o(.text) for EPDShowBGScreen
    guioff.o(.text) refers to sys_uart.o(.text) for sysprintf
    guioff.o(.text) refers to halinterface.o(.text) for GuiGetInterface
    guioff.o(.text) refers to guioff.o(.data) for tickStart
    guioff.o(.text) refers to guioff.o(.constdata) for .constdata
    halinterface.o(.text) refers to halinterface.o(.data) for mKeyInterface
    halinterface.o(.data) refers to keydrv.o(.text) for KeyDrvInit
    halinterface.o(.data) refers to timerdrv.o(.text) for TimerDrvInit
    halinterface.o(.data) refers to guidrv.o(.text) for GUIDrvInit
    halinterface.o(.data) refers to ts2000drv.o(.text) for TS2000DrvInit
    guidrv.o(.text) refers to sys_uart.o(.text) for sysprintf
    guidrv.o(.text) refers to powerdrv.o(.text) for PowerRegCallback
    guidrv.o(.text) refers to halinterface.o(.text) for KeyGetInterface
    guidrv.o(.text) refers to guidrv.o(.data) for pUserGuiInstance
    guidrv.o(.text) refers to timerdrv.o(.text) for TimerAllStop
    guidrv.o(.data) refers to guidrv.o(.conststring) for .conststring
    guidrv.o(.data) refers to guidrv.o(.text) for guiDrvPreOffCallback
    keydrv.o(.text) refers to buzzerdrv.o(.text) for BuzzerPlay
    keydrv.o(.text) refers to interface.o(.text) for KeyHardwareGetInterface
    keydrv.o(.text) refers to sys_uart.o(.text) for sysprintf
    keydrv.o(.text) refers to keydrv.o(.data) for keyDrvMode
    powerdrv.o(.text) refers to gpio.o(.text) for GPIO_ReadBit
    powerdrv.o(.text) refers to sys_timer.o(.text) for sysDelay
    powerdrv.o(.text) refers to sys_uart.o(.text) for sysprintf
    powerdrv.o(.text) refers to dataprocesslib.o(.text) for DataProcessSendStatusData
    powerdrv.o(.text) refers to rtc.o(.text) for RTC_Ioctl
    powerdrv.o(.text) refers to powerdrv.o(.data) for g_bAlarm
    powerdrv.o(.text) refers to powerdrv.o(.bss) for mPowerCallbackFunc
    powerdrv.o(.text) refers to tarifflib.o(.text) for TariffGetNextWakeupTime
    powerdrv.o(.text) refers to tasks.o(.text) for xTaskGetTickCount
    powerdrv.o(.text) refers to osmisc.o(.emb_text) for __wfi
    powerdrv.o(.text) refers to main.o(.text) for SysGetBooted
    powerdrv.o(.text) refers to queue.o(.text) for xQueueGenericReceive
    powerdrv.o(.text) refers to powerdrv.o(.constdata) for .constdata
    powerdrv.o(.data) refers to powerdrv.o(.conststring) for .conststring
    powerdrv.o(.data) refers to powerdrv.o(.text) for PowerDrvPreOffCallback
    timerdrv.o(.text) refers to aeabi_sdiv.o(.text_udiv) for __aeabi_uidivmod
    timerdrv.o(.text) refers to tasks.o(.text) for vTaskDelay
    timerdrv.o(.text) refers to queue.o(.text) for xQueueGenericReceive
    timerdrv.o(.text) refers to sys_uart.o(.text) for sysprintf
    timerdrv.o(.text) refers to timerdrv.o(.data) for threadWaitTime
    timerdrv.o(.text) refers to timerdrv.o(.bss) for xSemaphore
    cardreader.o(.text) refers to sys_uart.o(.text) for sysprintf
    cardreader.o(.text) refers to queue.o(.text) for xQueueGenericReceive
    cardreader.o(.text) refers to tasks.o(.text) for xTaskCreate
    cardreader.o(.text) refers to halinterface.o(.text) for TSReaderGetInterface
    cardreader.o(.text) refers to cardreader.o(.data) for pTSReaderInterface
    epddrv.o(.text) refers to sys_uart.o(.text) for sysprintf
    epddrv.o(.text) refers to gpio.o(.text) for GPIO_SetBit
    epddrv.o(.text) refers to sys_timer.o(.text) for sysDelay
    epddrv.o(.text) refers to buzzerdrv.o(.text) for BuzzerPlay
    epddrv.o(.text) refers to tasks.o(.text) for vTaskDelay
    epddrv.o(.text) refers to epddrv.o(.data) for pSpiInterface
    epddrv.o(.text) refers to queue.o(.text) for xQueueGenericReceive
    epddrv.o(.text) refers to main.o(.text) for SysGetBooted
    epddrv.o(.text) refers to powerdrv.o(.text) for PowerRegCallback
    epddrv.o(.text) refers to rt_memclr_w.o(.text) for __aeabi_memclr4
    epddrv.o(.text) refers to aeabi_sdiv.o(.text) for __aeabi_idivmod
    epddrv.o(.text) refers to aeabi_sdiv.o(.text_udiv) for __aeabi_uidivmod
    epddrv.o(.text) refers to uread4.o(.text) for __aeabi_uread4
    epddrv.o(.text) refers to uwrite4.o(.text) for __aeabi_uwrite4
    epddrv.o(.text) refers to rt_memcpy.o(.text) for __aeabi_memcpy
    epddrv.o(.text) refers to epddrv.o(.bss) for mBannerPositionInfo
    epddrv.o(.text) refers to epddrv.o(.constdata) for .constdata
    epddrv.o(.text) refers to interface.o(.text) for SpiGetInterface
    epddrv.o(.text) refers to rtc.o(.text) for RTC_Read
    epddrv.o(.text) refers to meterdata.o(.text) for MeterUpdateExpiredTitle
    epddrv.o(.data) refers to epddrv.o(.conststring) for .conststring
    epddrv.o(.data) refers to epddrv.o(.text) for epdDrvPreOffCallback
    spacedrv.o(.text) refers to tasks.o(.text) for vTaskDelay
    spacedrv.o(.text) refers to queue.o(.text) for xQueueGenericSend
    spacedrv.o(.text) refers to sys_uart.o(.text) for sysprintf
    spacedrv.o(.text) refers to meterdata.o(.text) for MeterSetErrorCode
    spacedrv.o(.text) refers to spacedrv.o(.data) for spaceDrvPowerStatus
    spacedrv.o(.text) refers to powerdrv.o(.text) for PowerRegCallback
    spacedrv.o(.text) refers to interface.o(.text) for DistGetInterface
    spacedrv.o(.data) refers to spacedrv.o(.conststring) for .conststring
    spacedrv.o(.data) refers to spacedrv.o(.text) for SpaceDrvPreOffCallback
    timelib.o(.text) refers to _printf_pad.o(.text) for _printf_pre_padding
    timelib.o(.text) refers to _printf_percent.o(.ARM.Collect$$_printf_percent$$00000000) for _printf_percent
    timelib.o(.text) refers to _printf_d.o(.ARM.Collect$$_printf_percent$$00000009) for _printf_d
    timelib.o(.text) refers to _printf_dec.o(.text) for _printf_int_dec
    timelib.o(.text) refers to aeabi_sdiv.o(.text_udiv) for __aeabi_uidivmod
    timelib.o(.text) refers to aeabi_sdiv.o(.text) for __aeabi_idivmod
    timelib.o(.text) refers to mktime.o(.text) for mktime
    timelib.o(.text) refers to rtc.o(.text) for RTC_Read
    timelib.o(.text) refers to sys_uart.o(.text) for sysprintf
    timelib.o(.text) refers to __2sprintf.o(.text) for __2sprintf
    timelib.o(.text) refers to timelib.o(.bss) for br_time
    timelib.o(.text) refers to timelib.o(.constdata) for _ytab
    timelib.o(.text) refers to timelib.o(.data) for ptimeinfo
    ts2000drv.o(.text) refers to sys_uart.o(.text) for sysprintf
    ts2000drv.o(.text) refers to tasks.o(.text) for xTaskGetTickCount
    ts2000drv.o(.text) refers to rt_memcpy.o(.text) for __aeabi_memcpy
    ts2000drv.o(.text) refers to ts2000drv.o(.data) for useCallBackFlag
    ts2000drv.o(.text) refers to ts2000drv.o(.bss) for rxTemp
    ts2000drv.o(.text) refers to ts2000drv.o(.constdata) for .constdata
    ts2000drv.o(.text) refers to sys_timer.o(.text) for sysDOS_Time_To_UTC
    ts2000drv.o(.text) refers to rt_memclr_w.o(.text) for __aeabi_memclr4
    ts2000drv.o(.text) refers to aeabi_sdiv.o(.text) for __aeabi_idivmod
    ts2000drv.o(.text) refers to interface.o(.text) for UartGetInterface
    pct08cmdlib.o(.text) refers to pct08drv.o(.text) for PCT08FlushTxRx
    pct08cmdlib.o(.text) refers to aeabi_sdiv.o(.text_udiv) for __aeabi_uidivmod
    pct08cmdlib.o(.text) refers to sys_uart.o(.text) for sysprintf
    pct08cmdlib.o(.text) refers to rt_memcpy.o(.text) for __aeabi_memcpy
    pct08cmdlib.o(.text) refers to memcmp.o(.text) for memcmp
    pct08cmdlib.o(.text) refers to tasks.o(.text) for vTaskDelay
    pct08cmdlib.o(.text) refers to pct08cmdlib.o(.bss) for receiveDataTmp
    pct08cmdlib.o(.text) refers to pct08cmdlib.o(.data) for cmdTakeAck
    pct08cmdlib.o(.text) refers to fileagent.o(.text) for FileAgentAddData
    pct08cmdlib.o(.text) refers to pct08cmdlib.o(.constdata) for .constdata
    pct08drv.o(.text) refers to sys_uart.o(.text) for sysprintf
    pct08drv.o(.text) refers to interface.o(.text) for UartGetInterface
    pct08drv.o(.text) refers to pct08drv.o(.data) for pUartInterface
    fatfslib.o(.text) refers to fileagent.o(.text) for FileAgentInit
    fatfslib.o(.text) refers to strcmp.o(.text) for strcmp
    fatfslib.o(.text) refers to sys_uart.o(.text) for sysprintf
    fatfslib.o(.text) refers to flashdrvex.o(.text) for FlashDrvExChipErase
    fatfslib.o(.text) refers to ff.o(.text) for f_mkfs
    fatfslib.o(.text) refers to fatfslib.o(.constdata) for .constdata
    fatfslib.o(.text) refers to interface.o(.text) for FatfsHardwareGetInterface
    fatfslib.o(.text) refers to epddrv.o(.text) for EPDShowBGScreen
    fatfslib.o(.text) refers to fatfslib.o(.data) for deviceInterfaceIndex
    fatfslib.o(.text) refers to fatfslib.o(.bss) for pFatfsHardwareInterface
    fatfslib.o(.data) refers to fatfslib.o(.conststring) for .conststring
    photoagent.o(.text) refers to tasks.o(.text) for vTaskDelay
    photoagent.o(.text) refers to sys_uart.o(.text) for sysprintf
    photoagent.o(.text) refers to queue.o(.text) for xQueueGenericReceive
    photoagent.o(.text) refers to powerdrv.o(.text) for PowerRegCallback
    photoagent.o(.text) refers to photoagent.o(.data) for photoAgentPowerStatus
    photoagent.o(.data) refers to photoagent.o(.conststring) for .conststring
    photoagent.o(.data) refers to photoagent.o(.text) for PhotoAgentPreOffCallback
    jsoncmdlib.o(.text) refers to sys_uart.o(.text) for sysprintf
    jsoncmdlib.o(.text) refers to cjson.o(.text) for cJSON_CreateObject
    jsoncmdlib.o(.text) refers to dflt_clz.o(x$fpl$dflt) for __aeabi_i2d
    jsoncmdlib.o(.text) refers to timelib.o(.text) for UTCTimeToString
    jsoncmdlib.o(.text) refers to powerdrv.o(.text) for PowerGetTotalWakeupTick
    jsoncmdlib.o(.text) refers to dflt_clz.o(x$fpl$dfltu) for __aeabi_ui2d
    jsoncmdlib.o(.text) refers to meterdata.o(.text) for GetMeterData
    jsoncmdlib.o(.text) refers to jsoncmdlib.o(.data) for statusRoot
    jsoncmdlib.o(.text) refers to heap_4.o(.text) for xPortGetFreeHeapSize
    jsoncmdlib.o(.text) refers to fatfslib.o(.text) for FatfsGetDiskUseageEx
    jsoncmdlib.o(.text) refers to flashdrvex.o(.text) for FlashDrvExGetErrorTimes
    jsoncmdlib.o(.text) refers to fileagent.o(.text) for FileAgentGetFatFsAutoFormatCounter
    modemagent.o(.text) refers to _printf_percent.o(.ARM.Collect$$_printf_percent$$00000000) for _printf_percent
    modemagent.o(.text) refers to _printf_s.o(.ARM.Collect$$_printf_percent$$00000014) for _printf_s
    modemagent.o(.text) refers to _printf_str.o(.text) for _printf_str
    modemagent.o(.text) refers to _printf_d.o(.ARM.Collect$$_printf_percent$$00000009) for _printf_d
    modemagent.o(.text) refers to _printf_dec.o(.text) for _printf_int_dec
    modemagent.o(.text) refers to tasks.o(.text) for vTaskDelay
    modemagent.o(.text) refers to queue.o(.text) for xQueueGenericSend
    modemagent.o(.text) refers to sys_uart.o(.text) for sysprintf
    modemagent.o(.text) refers to rtc.o(.text) for RTC_Read
    modemagent.o(.text) refers to timelib.o(.text) for RTC2Time
    modemagent.o(.text) refers to dataprocesslib.o(.text) for DataProcessCheckExecute
    modemagent.o(.text) refers to __2sprintf.o(.text) for __2sprintf
    modemagent.o(.text) refers to loglib.o(.text) for LoglibPrintf
    modemagent.o(.text) refers to meterdata.o(.text) for MeterUpdateModemAgentLastTime
    modemagent.o(.text) refers to quentelmodemlib.o(.text) for QModemDialupStart
    modemagent.o(.text) refers to fileagent.o(.text) for FileAgentFatfsListFile
    modemagent.o(.text) refers to modemagent.o(.data) for modemAgentPowerStatusFlag
    modemagent.o(.text) refers to powerdrv.o(.text) for PowerRegCallback
    modemagent.o(.text) refers to modemagent.o(.constdata) for .constdata
    modemagent.o(.data) refers to modemagent.o(.conststring) for .conststring
    modemagent.o(.data) refers to modemagent.o(.text) for ModemAgentPreOffCallback
    tarifflib.o(.text) refers to qsortnoex.o(.text) for qsort
    tarifflib.o(.text) refers to rtc.o(.text) for RTC_Read
    tarifflib.o(.text) refers to sys_uart.o(.text) for sysprintf
    tarifflib.o(.text) refers to strcmp.o(.text) for strcmp
    tarifflib.o(.text) refers to tarifflib.o(.bss) for tariffEffectiveDate
    tarifflib.o(.text) refers to tarifflib.o(.data) for currentTariffFileIndex
    tarifflib.o(.text) refers to strcpy.o(.text) for strcpy
    tarifflib.o(.text) refers to rt_memclr_w.o(.text) for __aeabi_memclr4
    tarifflib.o(.text) refers to fileagent.o(.text) for FileAgentGetList
    tarifflib.o(.text) refers to tarifflib.o(.constdata) for .constdata
    tarifflib.o(.text) refers to meterdata.o(.text) for MeterSetErrorCode
    tarifflib.o(.text) refers to cjson.o(.text) for cJSON_Parse
    tarifflib.o(.text) refers to heap_4.o(.text) for vPortFree
    tarifflib.o(.text) refers to strlen.o(.text) for strlen
    yaffs2drv.o(.text) refers to _printf_percent.o(.ARM.Collect$$_printf_percent$$00000000) for _printf_percent
    yaffs2drv.o(.text) refers to _printf_s.o(.ARM.Collect$$_printf_percent$$00000014) for _printf_s
    yaffs2drv.o(.text) refers to _printf_str.o(.text) for _printf_str
    yaffs2drv.o(.text) refers to yaffs_malloc.o(.text) for yaffsfs_GetLastError
    yaffs2drv.o(.text) refers to sys_uart.o(.text) for sysprintf
    yaffs2drv.o(.text) refers to yaffsfs.o(.text) for yaffs_opendir
    yaffs2drv.o(.text) refers to __2sprintf.o(.text) for __2sprintf
    yaffs2drv.o(.text) refers to strlen.o(.text) for strlen
    yaffs2drv.o(.text) refers to aeabi_sdiv.o(.text_udiv) for __aeabi_uidivmod
    yaffs2drv.o(.text) refers to rt_memclr_w.o(.text) for __aeabi_memclr4
    yaffs2drv.o(.text) refers to strcpy.o(.text) for strcpy
    yaffs2drv.o(.text) refers to lludiv5.o(.text) for __aeabi_uldivmod
    yaffs2drv.o(.text) refers to strcmp.o(.text) for strcmp
    yaffs2drv.o(.text) refers to nand.o(.bss) for nand_info
    yaffs2drv.o(.text) refers to yaffs_mtdif2.o(.text) for nandmtd2_write_chunk_tags
    yaffs2drv.o(.text) refers to yaffs_mtdif.o(.text) for nandmtd_EraseBlockInNAND
    yaffs2drv.o(.text) refers to nand.o(.text) for nand_init
    yaffs2drv.o(.text) refers to yaffs2drv.o(.constdata) for .constdata
    yaffs2drv.o(.text) refers to yaffs2drv.o(.data) for mtpoint
    dataprocesslib.o(.text) refers to _printf_pad.o(.text) for _printf_pre_padding
    dataprocesslib.o(.text) refers to _printf_percent.o(.ARM.Collect$$_printf_percent$$00000000) for _printf_percent
    dataprocesslib.o(.text) refers to _printf_d.o(.ARM.Collect$$_printf_percent$$00000009) for _printf_d
    dataprocesslib.o(.text) refers to _printf_s.o(.ARM.Collect$$_printf_percent$$00000014) for _printf_s
    dataprocesslib.o(.text) refers to _printf_dec.o(.text) for _printf_int_dec
    dataprocesslib.o(.text) refers to _printf_str.o(.text) for _printf_str
    dataprocesslib.o(.text) refers to sys_uart.o(.text) for sysprintf
    dataprocesslib.o(.text) refers to fileagent.o(.text) for FileAgentGetData
    dataprocesslib.o(.text) refers to meterdata.o(.text) for GetMeterData
    dataprocesslib.o(.text) refers to __2sprintf.o(.text) for __2sprintf
    dataprocesslib.o(.text) refers to quentelmodemlib.o(.text) for QModemFtpClientStart
    dataprocesslib.o(.text) refers to loglib.o(.text) for LoglibPrintf
    dataprocesslib.o(.text) refers to heap_4.o(.text) for vPortFree
    dataprocesslib.o(.text) refers to strlen.o(.text) for strlen
    dataprocesslib.o(.text) refers to strcmp.o(.text) for strcmp
    dataprocesslib.o(.text) refers to dataprocesslib.o(.data) for needReloadFlag
    dataprocesslib.o(.text) refers to dataprocesslib.o(.constdata) for .constdata
    dataprocesslib.o(.text) refers to queue.o(.text) for xQueueGenericSend
    dataprocesslib.o(.text) refers to tarifflib.o(.text) for TariffLoadTariffFile
    dataprocesslib.o(.text) refers to paralib.o(.text) for MeterDataReloadParaFile
    dataprocesslib.o(.text) refers to guimanager.o(.text) for GuiManagerRefreshScreen
    dataprocesslib.o(.text) refers to timelib.o(.text) for GetCurrentUTCTime
    dataprocesslib.o(.text) refers to batterydrv.o(.text) for BatteryGetValue
    dataprocesslib.o(.text) refers to uread4.o(.text) for __aeabi_uread4
    dataprocesslib.o(.text) refers to spacedrv.o(.text) for GetSpaceDist
    dataprocesslib.o(.text) refers to jsoncmdlib.o(.text) for JsonCmdCreateStatusData
    dataprocesslib.o(.text) refers to cjson.o(.text) for cJSON_Parse
    dataprocesslib.o(.text) refers to strcpy.o(.text) for strcpy
    dataprocesslib.o(.data) refers to dataprocesslib.o(.conststring) for .conststring
    dataprocesslib.o(.data) refers to dataprocesslib.o(.text) for statusExecuteFunc
    loglib.o(.text) refers to _printf_pad.o(.text) for _printf_pre_padding
    loglib.o(.text) refers to _printf_percent.o(.ARM.Collect$$_printf_percent$$00000000) for _printf_percent
    loglib.o(.text) refers to _printf_d.o(.ARM.Collect$$_printf_percent$$00000009) for _printf_d
    loglib.o(.text) refers to _printf_dec.o(.text) for _printf_int_dec
    loglib.o(.text) refers to _printf_s.o(.ARM.Collect$$_printf_percent$$00000014) for _printf_s
    loglib.o(.text) refers to _printf_str.o(.text) for _printf_str
    loglib.o(.text) refers to rtc.o(.text) for RTC_Read
    loglib.o(.text) refers to aeabi_sdiv.o(.text_udiv) for __aeabi_uidivmod
    loglib.o(.text) refers to meterdata.o(.text) for GetMeterData
    loglib.o(.text) refers to __2sprintf.o(.text) for __2sprintf
    loglib.o(.text) refers to sys_uart.o(.text) for sysprintf
    loglib.o(.text) refers to queue.o(.text) for xQueueCreateMutex
    loglib.o(.text) refers to strlen.o(.text) for strlen
    loglib.o(.text) refers to heap_4.o(.text) for pvPortMalloc
    loglib.o(.text) refers to rt_memclr.o(.text) for __aeabi_memclr
    loglib.o(.text) refers to fileagent.o(.text) for FileAgentAddData
    loglib.o(.text) refers to loglib.o(.bss) for currentLogFileName
    loglib.o(.text) refers to loglib.o(.data) for xSemaphore
    leddrv.o(.text) refers to tasks.o(.text) for vTaskDelay
    leddrv.o(.text) refers to ledcmdlib.o(.text) for RUN_Results
    leddrv.o(.text) refers to sys_uart.o(.text) for sysprintf
    leddrv.o(.text) refers to gpio.o(.text) for GPIO_ReadBit
    leddrv.o(.text) refers to leddrv.o(.data) for pUartInterface
    leddrv.o(.text) refers to queue.o(.text) for xQueueGenericReceive
    leddrv.o(.text) refers to interface.o(.text) for UartGetInterface
    leddrv.o(.text) refers to memcmp.o(.text) for memcmp
    leddrv.o(.text) refers to rt_memcpy.o(.text) for __aeabi_memcpy
    fileagent.o(.text) refers to _printf_percent.o(.ARM.Collect$$_printf_percent$$00000000) for _printf_percent
    fileagent.o(.text) refers to _printf_s.o(.ARM.Collect$$_printf_percent$$00000014) for _printf_s
    fileagent.o(.text) refers to _printf_str.o(.text) for _printf_str
    fileagent.o(.text) refers to _printf_pad.o(.text) for _printf_pre_padding
    fileagent.o(.text) refers to _printf_d.o(.ARM.Collect$$_printf_percent$$00000009) for _printf_d
    fileagent.o(.text) refers to _printf_dec.o(.text) for _printf_int_dec
    fileagent.o(.text) refers to tasks.o(.text) for vTaskDelay
    fileagent.o(.text) refers to queue.o(.text) for xQueueGenericReceive
    fileagent.o(.text) refers to __2sprintf.o(.text) for __2sprintf
    fileagent.o(.text) refers to ff.o(.text) for f_unlink
    fileagent.o(.text) refers to sys_uart.o(.text) for sysprintf
    fileagent.o(.text) refers to fileagent.o(.data) for fileAgentPowerStatusFlag
    fileagent.o(.text) refers to fatfslib.o(.text) for FatFsGetExistFlag
    fileagent.o(.text) refers to strcmp.o(.text) for strcmp
    fileagent.o(.text) refers to fileagent.o(.constdata) for .constdata
    fileagent.o(.text) refers to heap_4.o(.text) for pvPortMalloc
    fileagent.o(.text) refers to rt_memcpy.o(.text) for __aeabi_memcpy
    fileagent.o(.text) refers to dataprocesslib.o(.text) for DataProcessSendStatusData
    fileagent.o(.text) refers to strchr.o(.text) for strchr
    fileagent.o(.text) refers to rt_memclr_w.o(.text) for __aeabi_memclr4
    fileagent.o(.text) refers to strlen.o(.text) for strlen
    fileagent.o(.text) refers to strncpy.o(.text) for strncpy
    fileagent.o(.text) refers to aeabi_sdiv.o(.text) for __aeabi_idivmod
    fileagent.o(.text) refers to strcpy.o(.text) for strcpy
    fileagent.o(.text) refers to yaffsfs.o(.text) for yaffs_open
    fileagent.o(.text) refers to yaffs2drv.o(.text) for Yaffs2ErrorStr
    fileagent.o(.text) refers to rt_memcpy_w.o(.text) for __aeabi_memcpy4
    fileagent.o(.text) refers to powerdrv.o(.text) for PowerRegCallback
    fileagent.o(.text) refers to fileagent.o(.bss) for fileAgentDataItem
    fileagent.o(.data) refers to fileagent.o(.conststring) for .conststring
    fileagent.o(.data) refers to fileagent.o(.text) for FileAgentPreOffCallback
    userdrv.o(.text) refers to sys_uart.o(.text) for sysprintf
    userdrv.o(.text) refers to userdrv.o(.data) for mUserDrvInitFunctionList
    userdrv.o(.data) refers to userdrv.o(.conststring) for .conststring
    userdrv.o(.data) refers to buzzerdrv.o(.text) for BuzzerDrvInit
    userdrv.o(.data) refers to batterydrv.o(.text) for BatteryDrvInit
    interface.o(.text) refers to interface.o(.data) for mUartInterface
    interface.o(.data) refers to uart1drv.o(.text) for UART1DrvInit
    interface.o(.data) refers to uart2drv.o(.text) for UART2DrvInit
    interface.o(.data) refers to uart3drv.o(.text) for UART3DrvInit
    interface.o(.data) refers to uart4drv.o(.text) for UART4DrvInit
    interface.o(.data) refers to uart7drv.o(.text) for UART7DrvInit
    interface.o(.data) refers to uart8drv.o(.text) for UART8DrvInit
    interface.o(.data) refers to uart10drv.o(.text) for UART10DrvInit
    interface.o(.data) refers to spi0drv.o(.text) for Spi0DrvInit
    interface.o(.data) refers to spi1drv.o(.text) for Spi1DrvInit
    interface.o(.data) refers to i2c1drv.o(.text) for I2c1DrvInit
    interface.o(.data) refers to nt066edrv.o(.text) for NT066EDrvInit
    interface.o(.data) refers to dipdrv.o(.text) for DipDrvInit
    interface.o(.data) refers to sr04tdrv.o(.text) for SR04TDrvInit
    interface.o(.data) refers to rs232commdrv.o(.text) for RS232CommDrvInit
    interface.o(.data) refers to sddrv.o(.text) for SdDrvInit
    interface.o(.data) refers to flashdrvex.o(.text) for FlashDrvExInit
    uart1drv.o(.text) refers to gpio.o(.text) for GPIO_SetBit
    uart1drv.o(.text) refers to uart.o(.text) for uartOpen
    uart1drv.o(.text) refers to sys_uart.o(.text) for sysprintf
    uart1drv.o(.text) refers to uart1drv.o(.bss) for param
    uart2drv.o(.text) refers to gpio.o(.text) for GPIO_SetBit
    uart2drv.o(.text) refers to uart.o(.text) for uartOpen
    uart2drv.o(.text) refers to sys_uart.o(.text) for sysprintf
    uart2drv.o(.text) refers to uart2drv.o(.bss) for param
    uart3drv.o(.text) refers to gpio.o(.text) for GPIO_SetBit
    uart3drv.o(.text) refers to uart.o(.text) for uartOpen
    uart3drv.o(.text) refers to sys_uart.o(.text) for sysprintf
    uart3drv.o(.text) refers to uart3drv.o(.bss) for param
    uart4drv.o(.text) refers to gpio.o(.text) for GPIO_SetBit
    uart4drv.o(.text) refers to uart.o(.text) for uartOpen
    uart4drv.o(.text) refers to sys_uart.o(.text) for sysprintf
    uart4drv.o(.text) refers to uart4drv.o(.bss) for param
    uart7drv.o(.text) refers to gpio.o(.text) for GPIO_SetBit
    uart7drv.o(.text) refers to uart.o(.text) for uartOpen
    uart7drv.o(.text) refers to sys_uart.o(.text) for sysprintf
    uart7drv.o(.text) refers to uart7drv.o(.bss) for param
    uart8drv.o(.text) refers to gpio.o(.text) for GPIO_SetBit
    uart8drv.o(.text) refers to uart.o(.text) for uartOpen
    uart8drv.o(.text) refers to sys_uart.o(.text) for sysprintf
    uart8drv.o(.text) refers to uart8drv.o(.bss) for param
    uart10drv.o(.text) refers to gpio.o(.text) for GPIO_SetBit
    uart10drv.o(.text) refers to uart.o(.text) for uartOpen
    uart10drv.o(.text) refers to sys_uart.o(.text) for sysprintf
    uart10drv.o(.text) refers to uart10drv.o(.bss) for param
    spi0drv.o(.text) refers to gpio.o(.text) for GPIO_OpenBit
    spi0drv.o(.text) refers to spi.o(.text) for spiInit
    spi0drv.o(.text) refers to sys_uart.o(.text) for sysprintf
    spi1drv.o(.text) refers to spi.o(.text) for spiInit
    spi1drv.o(.text) refers to sys_uart.o(.text) for sysprintf
    i2c1drv.o(.text) refers to i2c.o(.text) for i2cInit
    i2c1drv.o(.text) refers to sys_uart.o(.text) for sysprintf
    buzzerdrv.o(.text) refers to gpio.o(.text) for GPIO_SetBit
    buzzerdrv.o(.text) refers to aeabi_sdiv.o(.text_udiv) for __aeabi_uidivmod
    buzzerdrv.o(.text) refers to tasks.o(.text) for vTaskDelay
    buzzerdrv.o(.text) refers to sys_uart.o(.text) for sysprintf
    buzzerdrv.o(.text) refers to queue.o(.text) for xQueueGenericReceive
    buzzerdrv.o(.text) refers to buzzerdrv.o(.data) for threadWaitTime
    batterydrv.o(.text) refers to queue.o(.text) for xQueueGiveFromISR
    batterydrv.o(.text) refers to tasks.o(.text) for vTaskSwitchContext
    batterydrv.o(.text) refers to adc.o(.text) for adcIoctl
    batterydrv.o(.text) refers to gpio.o(.text) for GPIO_ClrBit
    batterydrv.o(.text) refers to sys_uart.o(.text) for sysprintf
    batterydrv.o(.text) refers to aeabi_sdiv.o(.text_udiv) for __aeabi_uidivmod
    batterydrv.o(.text) refers to batterydrv.o(.bss) for adcValue
    batterydrv.o(.text) refers to batterydrv.o(.data) for saveIndex
    batterydrv.o(.text) refers to nt066edrv.o(.text) for NT066EResetChip
    dipdrv.o(.text) refers to sys_uart.o(.text) for sysprintf
    dipdrv.o(.text) refers to tasks.o(.text) for vTaskDelay
    dipdrv.o(.text) refers to main.o(.text) for SysGetBooted
    dipdrv.o(.text) refers to queue.o(.text) for xQueueGenericSend
    dipdrv.o(.text) refers to gpio.o(.text) for GPIO_ReadBit
    dipdrv.o(.text) refers to dipdrv.o(.data) for xActionSemaphore
    rs232commdrv.o(.text) refers to sys_uart.o(.text) for sysprintf
    rs232commdrv.o(.text) refers to interface.o(.text) for UartGetInterface
    rs232commdrv.o(.text) refers to rs232commdrv.o(.data) for pUartInterface
    flashdrvex.o(.text) refers to gpio.o(.text) for GPIO_ClrBit
    flashdrvex.o(.text) refers to sys_uart.o(.text) for sysprintf
    flashdrvex.o(.text) refers to queue.o(.text) for xQueueCreateMutex
    flashdrvex.o(.text) refers to flashdrvex.o(.data) for pSpiInterface
    flashdrvex.o(.text) refers to interface.o(.text) for SpiGetInterface
    flashdrvex.o(.text) refers to memcmp.o(.text) for memcmp
    flashdrvex.o(.text) refers to flashdrvex.o(.bss) for serialFlashBuff
    flashdrvex.o(.text) refers to flashdrvex.o(.constdata) for .constdata
    sddrv.o(.text) refers to gpio.o(.text) for GPIO_OpenBit
    sddrv.o(.text) refers to sys_uart.o(.text) for sysprintf
    sddrv.o(.text) refers to sys.o(.text) for sysInstallISR
    sddrv.o(.text) refers to sdh.o(.text) for SD_SetReferenceClock
    sddrv.o(.text) refers to sdh.o(.data) for _sd_SDDataReady
    sddrv.o(.text) refers to sdh.o(.bss) for SD0
    sr04tdrv.o(.text) refers to gpio.o(.text) for GPIO_SetBit
    sr04tdrv.o(.text) refers to tasks.o(.text) for vTaskDelay
    sr04tdrv.o(.text) refers to etimer.o(.text) for ETIMER_Open
    sr04tdrv.o(.text) refers to aeabi_sdiv.o(.text) for __aeabi_idivmod
    sr04tdrv.o(.text) refers to lludiv5.o(.text) for __aeabi_uldivmod
    sr04tdrv.o(.text) refers to aeabi_sdiv.o(.text_udiv) for __aeabi_uidivmod
    sr04tdrv.o(.text) refers to sys.o(.text) for sysInstallISR
    sr04tdrv.o(.text) refers to sys_uart.o(.text) for sysprintf
    sr04tdrv.o(.text) refers to sr04tdrv.o(.data) for distValue
    nt066edrv.o(.text) refers to sys_uart.o(.text) for sysprintf
    nt066edrv.o(.text) refers to queue.o(.text) for xQueueGiveFromISR
    nt066edrv.o(.text) refers to tasks.o(.text) for vTaskSwitchContext
    nt066edrv.o(.text) refers to gpio.o(.text) for GPIO_ClrISRBit
    nt066edrv.o(.text) refers to nt066edrv.o(.data) for pI2cInterface
    nt066edrv.o(.text) refers to interface.o(.text) for I2cGetInterface
    ccsbcs.o(.text) refers to ccsbcs.o(.constdata) for Tbl
    diskio.o(.text) refers to fatfslib.o(.text) for FatfsGetCallback
    diskio.o(.text) refers to sys_uart.o(.text) for sysprintf
    diskio.o(.text) refers to rt_memcpy.o(.text) for __aeabi_memcpy
    diskio.o(.text) refers to diskio.o(.bss) for fatfs_win_buff_pool
    ff.o(.text) refers to queue.o(.text) for xQueueGenericReceive
    ff.o(.text) refers to diskio.o(.text) for disk_write
    ff.o(.text) refers to aeabi_sdiv.o(.text_udiv) for __aeabi_uidivmod
    ff.o(.text) refers to ccsbcs.o(.text) for ff_wtoupper
    ff.o(.text) refers to sys_uart.o(.text) for sysprintf
    ff.o(.text) refers to ff.o(.constdata) for LfnOfs
    ff.o(.text) refers to aeabi_sdiv.o(.text) for __aeabi_idivmod
    ff.o(.text) refers to sddrv.o(.text) for get_fattime
    ff.o(.text) refers to ff.o(.data) for CurrVol
    ff.o(.text) refers to ff.o(.bss) for FatFs
    cjson.o(.text) refers to _printf_percent.o(.ARM.Collect$$_printf_percent$$00000000) for _printf_percent
    cjson.o(.text) refers to _printf_d.o(.ARM.Collect$$_printf_percent$$00000009) for _printf_d
    cjson.o(.text) refers to _printf_dec.o(.text) for _printf_int_dec
    cjson.o(.text) refers to _printf_f.o(.ARM.Collect$$_printf_percent$$00000003) for _printf_f
    cjson.o(.text) refers to printf1.o(x$fpl$printf1) for _printf_fp_dec
    cjson.o(.text) refers to _printf_e.o(.ARM.Collect$$_printf_percent$$00000004) for _printf_e
    cjson.o(.text) refers to _printf_pad.o(.text) for _printf_pre_padding
    cjson.o(.text) refers to _printf_x.o(.ARM.Collect$$_printf_percent$$0000000C) for _printf_x
    cjson.o(.text) refers to _printf_hex_int.o(.text) for _printf_longlong_hex
    cjson.o(.text) refers to tolower.o(.text) for tolower
    cjson.o(.text) refers to strlen.o(.text) for strlen
    cjson.o(.text) refers to rt_memcpy.o(.text) for __aeabi_memcpy
    cjson.o(.text) refers to rt_memclr_w.o(.text) for __aeabi_memclr4
    cjson.o(.text) refers to strtod.o(i.strtod) for strtod
    cjson.o(.text) refers to drleqf.o(x$fpl$drleqf) for __aeabi_cdrcmple
    cjson.o(.text) refers to dleqf.o(x$fpl$dleqf) for __aeabi_cdcmple
    cjson.o(.text) refers to dfix.o(x$fpl$dfix) for __aeabi_d2iz
    cjson.o(.text) refers to deqf.o(x$fpl$deqf) for __aeabi_cdcmpeq
    cjson.o(.text) refers to dflt_clz.o(x$fpl$dflt) for __aeabi_i2d
    cjson.o(.text) refers to daddsub_clz.o(x$fpl$dsub) for __aeabi_dsub
    cjson.o(.text) refers to __2sprintf.o(.text) for __2sprintf
    cjson.o(.text) refers to dmul.o(x$fpl$dmul) for __aeabi_dmul
    cjson.o(.text) refers to floor.o(i.floor) for floor
    cjson.o(.text) refers to cjson.o(.data) for global_ep
    cjson.o(.text) refers to cjson.o(.bss) for version
    cjson.o(.text) refers to strcpy.o(.text) for strcpy
    cjson.o(.text) refers to strchr.o(.text) for strchr
    cjson.o(.text) refers to cjson.o(.constdata) for firstByteMark
    cjson.o(.text) refers to strncmp.o(.text) for strncmp
    cjson.o(.text) refers to rt_memcpy_w.o(.text) for __aeabi_memcpy4
    cjson.o(.text) refers to f2d.o(x$fpl$f2d) for __aeabi_f2d
    cjson.o(.data) refers to heap_4.o(.text) for pvPortMalloc
    cjson_utils.o(.text) refers to _printf_percent.o(.ARM.Collect$$_printf_percent$$00000000) for _printf_percent
    cjson_utils.o(.text) refers to _printf_u.o(.ARM.Collect$$_printf_percent$$0000000A) for _printf_u
    cjson_utils.o(.text) refers to _printf_s.o(.ARM.Collect$$_printf_percent$$00000014) for _printf_s
    cjson_utils.o(.text) refers to _printf_dec.o(.text) for _printf_int_dec
    cjson_utils.o(.text) refers to _printf_str.o(.text) for _printf_str
    cjson_utils.o(.text) refers to strlen.o(.text) for strlen
    cjson_utils.o(.text) refers to heap_4.o(.text) for pvPortMalloc
    cjson_utils.o(.text) refers to rt_memcpy.o(.text) for __aeabi_memcpy
    cjson_utils.o(.text) refers to tolower.o(.text) for tolower
    cjson_utils.o(.text) refers to __2sprintf.o(.text) for __2sprintf
    cjson_utils.o(.text) refers to strcat.o(.text) for strcat
    cjson_utils.o(.text) refers to cjson.o(.text) for cJSON_GetArrayItem
    cjson_utils.o(.text) refers to strrchr.o(.text) for strrchr
    cjson_utils.o(.text) refers to atoi.o(.text) for atoi
    cjson_utils.o(.text) refers to deqf.o(x$fpl$deqf) for __aeabi_cdcmpeq
    cjson_utils.o(.text) refers to strcmp.o(.text) for strcmp
    atcmdparser.o(.text) refers to sys_uart.o(.text) for sysprintf
    atcmdparser.o(.text) refers to strlen.o(.text) for strlen
    atcmdparser.o(.text) refers to memcmp.o(.text) for memcmp
    atcmdparser.o(.text) refers to rt_memcpy.o(.text) for __aeabi_memcpy
    atcmdparser.o(.text) refers to atcmdparser.o(.data) for cmdList
    atcmdparser.o(.text) refers to atcmdparser.o(.bss) for dataTempBuffer2
    atcmdparser.o(.text) refers to rt_memclr.o(.text) for __aeabi_memclr
    atcmdparser.o(.data) refers to atcmdparser.o(.conststring) for .conststring
    quentelmodemlib.o(.text) refers to _printf_percent.o(.ARM.Collect$$_printf_percent$$00000000) for _printf_percent
    quentelmodemlib.o(.text) refers to _printf_s.o(.ARM.Collect$$_printf_percent$$00000014) for _printf_s
    quentelmodemlib.o(.text) refers to _printf_str.o(.text) for _printf_str
    quentelmodemlib.o(.text) refers to _printf_d.o(.ARM.Collect$$_printf_percent$$00000009) for _printf_d
    quentelmodemlib.o(.text) refers to _printf_dec.o(.text) for _printf_int_dec
    quentelmodemlib.o(.text) refers to sys_uart.o(.text) for sysprintf
    quentelmodemlib.o(.text) refers to strlen.o(.text) for strlen
    quentelmodemlib.o(.text) refers to memcmp.o(.text) for memcmp
    quentelmodemlib.o(.text) refers to atcmdparser.o(.text) for ATCmdGetReceiveDebugFlag
    quentelmodemlib.o(.text) refers to quentelmodemlib.o(.data) for pUartInterface
    quentelmodemlib.o(.text) refers to tasks.o(.text) for vTaskDelay
    quentelmodemlib.o(.text) refers to aeabi_sdiv.o(.text_udiv) for __aeabi_uidivmod
    quentelmodemlib.o(.text) refers to quentelmodemlib.o(.bss) for readBuff
    quentelmodemlib.o(.text) refers to __2sprintf.o(.text) for __2sprintf
    quentelmodemlib.o(.text) refers to loglib.o(.text) for LoglibPrintf
    quentelmodemlib.o(.text) refers to interface.o(.text) for UartGetInterface
    quentelmodemlib.o(.text) refers to quentelmodemlib.o(.constdata) for .constdata
    quentelmodemlib.o(.text) refers to fileagent.o(.text) for FileAgentAddData
    quentelmodemlib.o(.text) refers to dataprocesslib.o(.text) for DataParserWebPostReturnData
    quentelmodemlib.o(.data) refers to quentelmodemlib.o(.conststring) for .conststring
    mtdcore.o(.text) refers to sys_uart.o(.text) for sysprintf
    mtdcore.o(.text) refers to strcmp.o(.text) for strcmp
    mtdcore.o(.text) refers to mtdcore.o(.bss) for mtd_table
    mtdpart.o(.text) refers to mtdcore.o(.text) for del_mtd_device
    mtdpart.o(.text) refers to yaffs_malloc.o(.text) for yaffs_free
    mtdpart.o(.text) refers to sys_uart.o(.text) for sysprintf
    mtdpart.o(.text) refers to rt_memclr_w.o(.text) for __aeabi_memclr4
    mtdpart.o(.text) refers to lludiv5.o(.text) for __aeabi_uldivmod
    mtdpart.o(.text) refers to mtdpart.o(.data) for mtd_partitions
    mtdpart.o(.text) refers to mtdpart.o(.constdata) for .constdata
    nand.o(.text) refers to _printf_percent.o(.ARM.Collect$$_printf_percent$$00000000) for _printf_percent
    nand.o(.text) refers to _printf_d.o(.ARM.Collect$$_printf_percent$$00000009) for _printf_d
    nand.o(.text) refers to _printf_dec.o(.text) for _printf_int_dec
    nand.o(.text) refers to __2sprintf.o(.text) for __2sprintf
    nand.o(.text) refers to mtdcore.o(.text) for add_mtd_device
    nand.o(.text) refers to lludiv5.o(.text) for __aeabi_uldivmod
    nand.o(.text) refers to sys_uart.o(.text) for sysprintf
    nand.o(.text) refers to fmi_nand.o(.text) for board_nand_init
    nand.o(.text) refers to nand_base.o(.text) for nand_scan
    nand.o(.text) refers to yaffs_malloc.o(.text) for YAFFS_InitializeMemoryPool
    nand.o(.text) refers to nand.o(.bss) for nand_info
    nand.o(.text) refers to nand.o(.data) for dev_name
    nand_base.o(.text) refers to sys_uart.o(.text) for sysprintf
    nand_base.o(.text) refers to llsshr.o(.text) for __aeabi_lasr
    nand_base.o(.text) refers to rt_memcpy.o(.text) for __aeabi_memcpy
    nand_base.o(.text) refers to llushr.o(.text) for __aeabi_llsr
    nand_base.o(.text) refers to aeabi_memset.o(.text) for __aeabi_memset
    nand_base.o(.text) refers to nand_bbt.o(.text) for nand_update_bbt
    nand_base.o(.text) refers to fmi_nand.o(.text) for get_timer
    nand_base.o(.text) refers to aeabi_sdiv.o(.text_udiv) for __aeabi_uidivmod
    nand_base.o(.text) refers to llshl.o(.text) for __aeabi_llsl
    nand_base.o(.text) refers to mtdpart.o(.text) for mtd_erase_callback
    nand_base.o(.text) refers to nand_base.o(.constdata) for __func__
    nand_base.o(.text) refers to nand_ids.o(.constdata) for nand_flash_ids
    nand_base.o(.text) refers to rt_memclr.o(.text) for __aeabi_memclr
    nand_base.o(.text) refers to nand_base.o(.bss) for nand_oob_8
    nand_base.o(.text) refers to yaffs_malloc.o(.text) for yaffs_free
    nand_bbt.o(.text) refers to memcmp.o(.text) for memcmp
    nand_bbt.o(.text) refers to llshl.o(.text) for __aeabi_llsl
    nand_bbt.o(.text) refers to sys_uart.o(.text) for sysprintf
    nand_bbt.o(.text) refers to llushr.o(.text) for __aeabi_llsr
    nand_bbt.o(.text) refers to nand_bbt.o(.constdata) for __func__
    nand_bbt.o(.text) refers to llsshr.o(.text) for __aeabi_lasr
    nand_bbt.o(.text) refers to aeabi_memset.o(.text) for __aeabi_memset
    nand_bbt.o(.text) refers to rt_memcpy.o(.text) for __aeabi_memcpy
    nand_bbt.o(.text) refers to rt_memclr_w.o(.text) for __aeabi_memclr4
    nand_bbt.o(.text) refers to nand_base.o(.text) for nand_erase_nand
    nand_bbt.o(.text) refers to yaffs_malloc.o(.text) for yaffs_malloc
    nand_bbt.o(.text) refers to rt_memclr.o(.text) for __aeabi_memclr
    nand_bbt.o(.text) refers to nand_bbt.o(.data) for scan_ff_pattern
    nand_bbt.o(.text) refers to nand_bbt.o(.bss) for bbt_main_descr
    nand_ids.o(.constdata) refers to nand_ids.o(.conststring) for .conststring
    nand_util.o(.text) refers to sys_uart.o(.text) for sysprintf
    nand_util.o(.text) refers to rt_memclr_w.o(.text) for __aeabi_memclr4
    nand_util.o(.text) refers to lldiv.o(.text) for lldiv
    nand_util.o(.text) refers to yaffs_malloc.o(.text) for yaffs_free
    nand_util.o(.text) refers to lludiv5.o(.text) for __aeabi_uldivmod
    nand_util.o(.text) refers to nand_util.o(.constdata) for .constdata
    yaffs_allocator.o(.text) refers to sys_uart.o(.text) for sysprintf
    yaffs_allocator.o(.text) refers to yaffs_malloc.o(.text) for yaffs_free
    yaffs_allocator.o(.text) refers to yaffs_malloc.o(.data) for yaffs_trace_mask
    yaffs_attribs.o(.text) refers to yaffs_malloc.o(.text) for yaffsfs_CurrentTime
    yaffs_attribs.o(.text) refers to yaffs_guts.o(.text) for yaffs_get_equivalent_obj
    yaffs_attribs.o(.text) refers to strlen.o(.text) for strlen
    yaffs_bitmap.o(.text) refers to sys_uart.o(.text) for sysprintf
    yaffs_bitmap.o(.text) refers to rt_memclr.o(.text) for __aeabi_memclr
    yaffs_bitmap.o(.text) refers to yaffs_malloc.o(.data) for yaffs_trace_mask
    yaffs_checkptrw.o(.text) refers to sys_uart.o(.text) for sysprintf
    yaffs_checkptrw.o(.text) refers to yaffs_malloc.o(.data) for yaffs_trace_mask
    yaffs_checkptrw.o(.text) refers to yaffs_malloc.o(.text) for yaffs_malloc
    yaffs_checkptrw.o(.text) refers to rt_memclr.o(.text) for __aeabi_memclr
    yaffs_checkptrw.o(.text) refers to yaffs_checkptrw.o(.constdata) for .constdata
    yaffs_ecc.o(.text) refers to yaffs_ecc.o(.constdata) for column_parity_table
    yaffs_error.o(.text) refers to yaffs_error.o(.constdata) for error_list
    yaffs_error.o(.constdata) refers to yaffs_error.o(.conststring) for .conststring
    yaffs_guts.o(.text) refers to sys_uart.o(.text) for sysprintf
    yaffs_guts.o(.text) refers to llsshr.o(.text) for __aeabi_lasr
    yaffs_guts.o(.text) refers to aeabi_sdiv.o(.text_udiv) for __aeabi_uidivmod
    yaffs_guts.o(.text) refers to rt_memclr_w.o(.text) for __aeabi_memclr4
    yaffs_guts.o(.text) refers to yaffs_malloc.o(.text) for yaffs_malloc
    yaffs_guts.o(.text) refers to yaffs_malloc.o(.data) for yaffs_trace_mask
    yaffs_guts.o(.text) refers to yaffs_yaffs2.o(.text) for yaffs2_checkpt_invalidate
    yaffs_guts.o(.text) refers to yaffs_nand.o(.text) for yaffs_mark_bad
    yaffs_guts.o(.text) refers to aeabi_memset.o(.text) for __aeabi_memset
    yaffs_guts.o(.text) refers to yaffs_verify.o(.text) for yaffs_skip_verification
    yaffs_guts.o(.text) refers to yaffs_bitmap.o(.text) for yaffs_clear_chunk_bits
    yaffs_guts.o(.text) refers to yaffs_guts.o(.constdata) for .constdata
    yaffs_guts.o(.text) refers to aeabi_sdiv.o(.text) for __aeabi_idivmod
    yaffs_guts.o(.text) refers to memcmp.o(.text) for memcmp
    yaffs_guts.o(.text) refers to strlen.o(.text) for strlen
    yaffs_guts.o(.text) refers to strcpy.o(.text) for strcpy
    yaffs_guts.o(.text) refers to yaffsfs.o(.data) for yaffs_wr_attempts
    yaffs_guts.o(.text) refers to yaffs_allocator.o(.text) for yaffs_alloc_raw_tnode
    yaffs_guts.o(.text) refers to rt_memcpy_w.o(.text) for __aeabi_memcpy4
    yaffs_guts.o(.text) refers to yaffs_nameval.o(.text) for nval_set
    yaffs_guts.o(.text) refers to strncpy.o(.text) for strncpy
    yaffs_guts.o(.text) refers to yaffs_attribs.o(.text) for yaffs_load_attribs
    yaffs_guts.o(.text) refers to yaffs_summary.o(.text) for yaffs_summary_gc
    yaffs_guts.o(.text) refers to rt_memcpy.o(.text) for __aeabi_memcpy
    yaffs_guts.o(.text) refers to rt_memclr.o(.text) for __aeabi_memclr
    yaffs_guts.o(.text) refers to strcat.o(.text) for strcat
    yaffs_guts.o(.text) refers to strcmp.o(.text) for strcmp
    yaffs_guts.o(.text) refers to strncmp.o(.text) for strncmp
    yaffs_guts.o(.text) refers to yaffs_yaffs1.o(.text) for yaffs1_scan
    yaffs_malloc.o(.text) refers to rt_memclr.o(.text) for __aeabi_memclr
    yaffs_malloc.o(.text) refers to sys_uart.o(.text) for sysprintf
    yaffs_malloc.o(.text) refers to yaffs_malloc.o(.bss) for _YAFFSMemoryPool
    yaffs_malloc.o(.text) refers to yaffs_malloc.o(.data) for _MemoryPoolBase
    yaffs_malloc.o(.text) refers to yaffs_malloc.o(.constdata) for .constdata
    yaffs_malloc.o(.text) refers to h1_free.o(.text) for free
    yaffs_mtdif2.o(.text) refers to sys_uart.o(.text) for sysprintf
    yaffs_mtdif2.o(.text) refers to yaffs_packedtags2.o(.text) for yaffs_pack_tags2_tags_only
    yaffs_mtdif2.o(.text) refers to yaffs_guts.o(.text) for yaffs_get_temp_buffer
    yaffs_mtdif2.o(.text) refers to yaffs_malloc.o(.data) for yaffs_trace_mask
    yaffs_mtdif2.o(.text) refers to rt_memcpy.o(.text) for __aeabi_memcpy
    yaffs_nameval.o(.text) refers to rt_memcpy.o(.text) for __aeabi_memcpy
    yaffs_nameval.o(.text) refers to strncmp.o(.text) for strncmp
    yaffs_nameval.o(.text) refers to rt_memclr.o(.text) for __aeabi_memclr
    yaffs_nameval.o(.text) refers to strlen.o(.text) for strlen
    yaffs_nameval.o(.text) refers to strncpy.o(.text) for strncpy
    yaffs_nand.o(.text) refers to yaffs_tagscompat.o(.text) for yaffs_tags_compat_rd
    yaffs_nand.o(.text) refers to aeabi_sdiv.o(.text) for __aeabi_idivmod
    yaffs_nand.o(.text) refers to sys_uart.o(.text) for sysprintf
    yaffs_nand.o(.text) refers to yaffs_guts.o(.text) for yaffs_handle_chunk_error
    yaffs_nand.o(.text) refers to yaffs_malloc.o(.data) for yaffs_trace_mask
    yaffs_nand.o(.text) refers to yaffs_summary.o(.text) for yaffs_summary_add
    yaffs_packedtags1.o(.text) refers to memcmp.o(.text) for memcmp
    yaffs_packedtags1.o(.text) refers to rt_memclr_w.o(.text) for __aeabi_memclr4
    yaffs_packedtags1.o(.text) refers to yaffs_packedtags1.o(.constdata) for all_ff
    yaffs_packedtags2.o(.text) refers to sys_uart.o(.text) for sysprintf
    yaffs_packedtags2.o(.text) refers to yaffs_ecc.o(.text) for yaffs_ecc_calc_other
    yaffs_packedtags2.o(.text) refers to yaffs_malloc.o(.data) for yaffs_trace_mask
    yaffs_packedtags2.o(.text) refers to yaffs_packedtags2.o(.constdata) for .constdata
    yaffs_packedtags2.o(.text) refers to rt_memclr_w.o(.text) for __aeabi_memclr4
    yaffs_qsort.o(.text) refers to aeabi_sdiv.o(.text_udiv) for __aeabi_uidivmod
    yaffs_summary.o(.text) refers to sys_uart.o(.text) for sysprintf
    yaffs_summary.o(.text) refers to rt_memclr_w.o(.text) for __aeabi_memclr4
    yaffs_summary.o(.text) refers to yaffs_malloc.o(.text) for yaffs_free
    yaffs_summary.o(.text) refers to aeabi_sdiv.o(.text_udiv) for __aeabi_uidivmod
    yaffs_summary.o(.text) refers to yaffs_guts.o(.text) for yaffs_get_temp_buffer
    yaffs_summary.o(.text) refers to rt_memcpy.o(.text) for __aeabi_memcpy
    yaffs_summary.o(.text) refers to yaffs_nand.o(.text) for yaffs_wr_chunk_tags_nand
    yaffs_summary.o(.text) refers to yaffs_bitmap.o(.text) for yaffs_set_chunk_bit
    yaffs_summary.o(.text) refers to yaffs_malloc.o(.data) for yaffs_trace_mask
    yaffs_summary.o(.text) refers to aeabi_sdiv.o(.text) for __aeabi_idivmod
    yaffs_summary.o(.text) refers to yaffs_packedtags2.o(.text) for yaffs_pack_tags2_tags_only
    yaffs_tagscompat.o(.text) refers to yaffs_ecc.o(.text) for yaffs_ecc_calc
    yaffs_tagscompat.o(.text) refers to aeabi_memset.o(.text) for __aeabi_memset
    yaffs_tagscompat.o(.text) refers to sys_uart.o(.text) for sysprintf
    yaffs_tagscompat.o(.text) refers to aeabi_sdiv.o(.text) for __aeabi_idivmod
    yaffs_tagscompat.o(.text) refers to yaffs_malloc.o(.data) for yaffs_trace_mask
    yaffs_tagscompat.o(.text) refers to rt_memclr_w.o(.text) for __aeabi_memclr4
    yaffs_tagscompat.o(.text) refers to rt_memcpy.o(.text) for __aeabi_memcpy
    yaffs_tagscompat.o(.text) refers to memcmp.o(.text) for memcmp
    yaffs_tagscompat.o(.text) refers to yaffs_tagscompat.o(.data) for init
    yaffs_tagscompat.o(.text) refers to yaffs_tagscompat.o(.bss) for spare_ff
    yaffs_verify.o(.text) refers to sys_uart.o(.text) for sysprintf
    yaffs_verify.o(.text) refers to yaffs_bitmap.o(.text) for yaffs_count_chunk_bits
    yaffs_verify.o(.text) refers to yaffs_malloc.o(.data) for yaffs_trace_mask
    yaffs_verify.o(.text) refers to yaffs_verify.o(.constdata) for block_state_name
    yaffs_verify.o(.text) refers to rt_memclr_w.o(.text) for __aeabi_memclr4
    yaffs_verify.o(.text) refers to yaffs_guts.o(.text) for yaffs_addr_to_chunk
    yaffs_verify.o(.text) refers to yaffs_nand.o(.text) for yaffs_rd_chunk_tags_nand
    yaffs_verify.o(.text) refers to aeabi_sdiv.o(.text) for __aeabi_idivmod
    yaffs_verify.o(.text) refers to yaffs_verify.o(.data) for yaffs_free_verification_failures
    yaffs_verify.o(.constdata) refers to yaffs_verify.o(.conststring) for .conststring
    yaffs_yaffs1.o(.text) refers to sys_uart.o(.text) for sysprintf
    yaffs_yaffs1.o(.text) refers to yaffs_guts.o(.text) for yaffs_get_temp_buffer
    yaffs_yaffs1.o(.text) refers to yaffs_bitmap.o(.text) for yaffs_clear_chunk_bits
    yaffs_yaffs1.o(.text) refers to yaffs_nand.o(.text) for yaffs_query_init_block_state
    yaffs_yaffs1.o(.text) refers to yaffs_malloc.o(.data) for yaffs_trace_mask
    yaffs_yaffs1.o(.text) refers to yaffs_malloc.o(.text) for yaffs_malloc
    yaffs_yaffs1.o(.text) refers to yaffs_attribs.o(.text) for yaffs_load_attribs
    yaffs_yaffs1.o(.text) refers to yaffs_yaffs1.o(.constdata) for .constdata
    yaffs_yaffs2.o(.text) refers to sys_uart.o(.text) for sysprintf
    yaffs_yaffs2.o(.text) refers to aeabi_sdiv.o(.text) for __aeabi_idivmod
    yaffs_yaffs2.o(.text) refers to yaffs_checkptrw.o(.text) for yaffs2_checkpt_wr
    yaffs_yaffs2.o(.text) refers to yaffs_guts.o(.text) for yaffs_find_or_create_by_number
    yaffs_yaffs2.o(.text) refers to aeabi_memset.o(.text) for __aeabi_memset
    yaffs_yaffs2.o(.text) refers to yaffs_malloc.o(.data) for yaffs_trace_mask
    yaffs_yaffs2.o(.text) refers to yaffs_yaffs2.o(.constdata) for .constdata
    yaffs_yaffs2.o(.text) refers to yaffs_yaffs2.o(.data) for hard_list
    yaffs_yaffs2.o(.text) refers to yaffs_verify.o(.text) for yaffs_verify_objects
    yaffs_yaffs2.o(.text) refers to rt_memclr.o(.text) for __aeabi_memclr
    yaffs_yaffs2.o(.text) refers to yaffs_summary.o(.text) for yaffs_summary_fetch
    yaffs_yaffs2.o(.text) refers to yaffs_nand.o(.text) for yaffs_rd_chunk_tags_nand
    yaffs_yaffs2.o(.text) refers to yaffs_bitmap.o(.text) for yaffs_set_chunk_bit
    yaffs_yaffs2.o(.text) refers to yaffs_attribs.o(.text) for yaffs_load_attribs
    yaffs_yaffs2.o(.text) refers to yaffs_malloc.o(.text) for yaffs_malloc
    yaffs_yaffs2.o(.text) refers to yaffs_qsort.o(.text) for yaffs_qsort
    yaffsfs.o(.text) refers to rt_memclr_w.o(.text) for __aeabi_memclr4
    yaffsfs.o(.text) refers to rt_memclr.o(.text) for __aeabi_memclr
    yaffsfs.o(.text) refers to yaffs_guts.o(.text) for yaffs_get_equivalent_obj
    yaffsfs.o(.text) refers to strlen.o(.text) for strlen
    yaffsfs.o(.text) refers to yaffs_malloc.o(.text) for yaffsfs_SetError
    yaffsfs.o(.text) refers to strcpy.o(.text) for strcpy
    yaffsfs.o(.text) refers to yaffs_malloc.o(.data) for yaffs_trace_mask
    yaffsfs.o(.text) refers to yaffsfs.o(.data) for yaffsfs_handlesInitialised
    yaffsfs.o(.text) refers to yaffsfs.o(.bss) for yaffsfs_inode
    yaffsfs.o(.text) refers to strcmp.o(.text) for strcmp
    yaffsfs.o(.text) refers to strncmp.o(.text) for strncmp
    yaffsfs.o(.text) refers to llsdiv.o(.text) for __aeabi_ldivmod
    yaffsfs.o(.text) refers to sys_uart.o(.text) for sysprintf
    yaffsfs.o(.text) refers to yaffs_yaffs2.o(.text) for yaffs_checkpoint_save
    yaffsfs.o(.text) refers to strncpy.o(.text) for strncpy
    fmi_nand.o(.text) refers to sys_timer.o(.text) for sysGetTicks
    fmi_nand.o(.text) refers to aeabi_sdiv.o(.text_udiv) for __aeabi_uidivmod
    fmi_nand.o(.text) refers to aeabi_memset.o(.text) for __aeabi_memset
    fmi_nand.o(.text) refers to rt_memcpy.o(.text) for __aeabi_memcpy
    fmi_nand.o(.text) refers to rt_memclr_w.o(.text) for __aeabi_memclr4
    fmi_nand.o(.text) refers to nand_base.o(.text) for nand_scan_ident
    fmi_nand.o(.text) refers to sys_uart.o(.text) for sysprintf
    fmi_nand.o(.text) refers to fmi_nand.o(.data) for nuc970_nand
    fmi_nand.o(.text) refers to fmi_nand.o(.constdata) for g_i32BCHAlgoIdx
    fmi_nand.o(.text) refers to fmi_nand.o(.bss) for g_nuc970_nand
    osmisc.o(.text) refers to tasks.o(.text) for xTaskGetCurrentTaskHandle
    osmisc.o(.text) refers to sys_uart.o(.text) for sysprintf
    osmisc.o(.text) refers to heap_4.o(.text) for xPortGetFreeHeapSize
    osmisc.o(.text) refers to rt_memclr_w.o(.text) for __aeabi_memclr4
    osmisc.o(.text) refers to osmisc.o(.constdata) for .constdata
    osmisc.o(.text) refers to osmisc.o(.emb_text) for __wfi
    osmisc.o(.text) refers to sys_timer.o(.text) for sysStartTimer
    queue.o(.text) refers to port.o(.text) for vPortEnterCritical
    queue.o(.text) refers to tasks.o(.text) for xTaskRemoveFromEventList
    queue.o(.text) refers to portasm.o(PORT_ASM) for vPortYield2
    queue.o(.text) refers to list.o(.text) for vListInitialise
    queue.o(.text) refers to heap_4.o(.text) for pvPortMalloc
    queue.o(.text) refers to rt_memcpy.o(.text) for __aeabi_memcpy
    tasks.o(.text) refers to _printf_percent.o(.ARM.Collect$$_printf_percent$$00000000) for _printf_percent
    tasks.o(.text) refers to _printf_u.o(.ARM.Collect$$_printf_percent$$0000000A) for _printf_u
    tasks.o(.text) refers to _printf_c.o(.ARM.Collect$$_printf_percent$$00000013) for _printf_c
    tasks.o(.text) refers to _printf_dec.o(.text) for _printf_int_dec
    tasks.o(.text) refers to _printf_str.o(.text) for _printf_str
    tasks.o(.text) refers to list.o(.text) for vListInitialise
    tasks.o(.text) refers to port.o(.text) for vPortEnterCritical
    tasks.o(.text) refers to portasm.o(PORT_ASM) for vPortYield2
    tasks.o(.text) refers to aeabi_memset.o(.text) for __aeabi_memset
    tasks.o(.text) refers to heap_4.o(.text) for pvPortMalloc
    tasks.o(.text) refers to osmisc.o(.text) for vApplicationTickHook
    tasks.o(.text) refers to tasks.o(.bss) for pxReadyTasksLists
    tasks.o(.text) refers to tasks.o(.data) for pxDelayedTaskList
    tasks.o(.text) refers to strcpy.o(.text) for strcpy
    tasks.o(.text) refers to strlen.o(.text) for strlen
    tasks.o(.text) refers to __2sprintf.o(.text) for __2sprintf
    heap_4.o(.text) refers to tasks.o(.text) for vTaskSuspendAll
    heap_4.o(.text) refers to osmisc.o(.text) for vApplicationMallocFailedHook
    heap_4.o(.text) refers to heap_4.o(.data) for xStart
    heap_4.o(.text) refers to heap_4.o(.bss) for ucHeap
    portasm.o(PORT_ASM) refers to sys.o(.text) for sysIrqHandler
    portasm.o(PORT_ASM) refers to tasks.o(.data) for pxCurrentTCB
    portasm.o(PORT_ASM) refers to port.o(.data) for ulCriticalNesting
    portasm.o(PORT_ASM) refers to tasks.o(.text) for vTaskSwitchContext
    port.o(.text) refers to osmisc.o(.text) for initTimer
    port.o(.text) refers to portasm.o(PORT_ASM) for vPortStartFirstTask
    port.o(.text) refers to port.o(.data) for ulCriticalNesting
    free.o(.text) refers (Special) to hguard.o(.text) for __heap$guard
    free.o(.text) refers to rt_heap_descriptor.o(.text) for __rt_heap_descriptor
    h1_free.o(.text) refers to rt_heap_descriptor.o(.text) for __rt_heap_descriptor
    h1_free_mt.o(.text) refers to rt_heap_descriptor.o(.text) for __rt_heap_descriptor
    heap2.o(i._FDIterate) refers to heap2.o(.constdata) for .constdata
    heap2.o(i.___Heap_ProvideMemory$realtime) refers to fdtree.o(i._FDTree_Delete) for _FDTree_Delete
    heap2.o(i.___Heap_ProvideMemory$realtime) refers to fdtree.o(i._FDTree_Insert) for _FDTree_Insert
    heap2.o(i.___Heap_Stats$realtime) refers to heap2.o(i._Heap2_StatsIterate) for _Heap2_StatsIterate
    heap2.o(i.___Heap_Stats$realtime) refers to aeabi_sdiv.o(.text_udiv) for __aeabi_uidivmod
    heap2.o(i.___Heap_Valid$realtime) refers to heap2.o(i._FDIterate) for _FDIterate
    heap2.o(i.___Heap_Valid$realtime) refers to heap2.o(.constdata) for .constdata
    heap2.o(i._free$realtime) refers to rt_heap_descriptor.o(.text) for __rt_heap_descriptor
    heap2.o(i._free$realtime) refers to fdtree.o(i._FDTree_Delete) for _FDTree_Delete
    heap2.o(i._free$realtime) refers to fdtree.o(i._FDTree_Insert) for _FDTree_Insert
    heap2.o(i._malloc$realtime) refers to rt_heap_descriptor.o(.text) for __rt_heap_descriptor
    heap2.o(i._malloc$realtime) refers to fdtree.o(i._FDTree_FindFirst) for _FDTree_FindFirst
    heap2.o(i._malloc$realtime) refers to init_alloc.o(.text) for __Heap_Full
    heap2.o(i._malloc$realtime) refers to fdtree.o(i._FDTree_RemoveNode) for _FDTree_RemoveNode
    heap2.o(i._malloc$realtime) refers to fdtree.o(i._FDTree_Insert) for _FDTree_Insert
    heap2.o(i._posix_memalign$realtime) refers to rt_heap_descriptor.o(.text) for __rt_heap_descriptor
    heap2.o(i._posix_memalign$realtime) refers to fdtree.o(i._FDTree_FindFirst) for _FDTree_FindFirst
    heap2.o(i._posix_memalign$realtime) refers to init_alloc.o(.text) for __Heap_Full
    heap2.o(i._posix_memalign$realtime) refers to fdtree.o(i._FDTree_RemoveNode) for _FDTree_RemoveNode
    heap2.o(i._posix_memalign$realtime) refers to fdtree.o(i._FDTree_Insert) for _FDTree_Insert
    heap2.o(i._realloc$realtime) refers to rt_heap_descriptor.o(.text) for __rt_heap_descriptor
    heap2.o(i._realloc$realtime) refers to h1_free.o(.text) for free
    heap2.o(i._realloc$realtime) refers to h1_alloc.o(.text) for malloc
    heap2.o(i._realloc$realtime) refers to fdtree.o(i._FDTree_Delete) for _FDTree_Delete
    heap2.o(i._realloc$realtime) refers to fdtree.o(i._FDTree_Insert) for _FDTree_Insert
    heap2.o(i._realloc$realtime) refers to rt_memcpy_w.o(.text) for __aeabi_memcpy4
    heap2mt.o(i._FDIterate) refers to heap2mt.o(.constdata) for .constdata
    heap2mt.o(i.___Heap_Initialize$realtime$concurrent) refers to mutex_dummy.o(.text) for _mutex_initialize
    heap2mt.o(i.___Heap_ProvideMemory$realtime$concurrent) refers to fdtree.o(i._FDTree_Delete) for _FDTree_Delete
    heap2mt.o(i.___Heap_ProvideMemory$realtime$concurrent) refers to fdtree.o(i._FDTree_Insert) for _FDTree_Insert
    heap2mt.o(i.___Heap_Stats$realtime$concurrent) refers to heap2mt.o(i._Heap2_StatsIterate) for _Heap2_StatsIterate
    heap2mt.o(i.___Heap_Stats$realtime$concurrent) refers to aeabi_sdiv.o(.text_udiv) for __aeabi_uidivmod
    heap2mt.o(i.___Heap_Valid$realtime$concurrent) refers to heap2mt.o(i._FDIterate) for _FDIterate
    heap2mt.o(i.___Heap_Valid$realtime$concurrent) refers to heap2mt.o(.constdata) for .constdata
    heap2mt.o(i._free$realtime$concurrent) refers to rt_heap_descriptor.o(.text) for __rt_heap_descriptor
    heap2mt.o(i._free$realtime$concurrent) refers to fdtree.o(i._FDTree_Delete) for _FDTree_Delete
    heap2mt.o(i._free$realtime$concurrent) refers to fdtree.o(i._FDTree_Insert) for _FDTree_Insert
    heap2mt.o(i._malloc$realtime$concurrent) refers to rt_heap_descriptor.o(.text) for __rt_heap_descriptor
    heap2mt.o(i._malloc$realtime$concurrent) refers to fdtree.o(i._FDTree_FindFirst) for _FDTree_FindFirst
    heap2mt.o(i._malloc$realtime$concurrent) refers to init_alloc.o(.text) for __Heap_Full
    heap2mt.o(i._malloc$realtime$concurrent) refers to fdtree.o(i._FDTree_RemoveNode) for _FDTree_RemoveNode
    heap2mt.o(i._malloc$realtime$concurrent) refers to fdtree.o(i._FDTree_Insert) for _FDTree_Insert
    heap2mt.o(i._posix_memalign$realtime$concurrent) refers to rt_heap_descriptor.o(.text) for __rt_heap_descriptor
    heap2mt.o(i._posix_memalign$realtime$concurrent) refers to fdtree.o(i._FDTree_FindFirst) for _FDTree_FindFirst
    heap2mt.o(i._posix_memalign$realtime$concurrent) refers to init_alloc.o(.text) for __Heap_Full
    heap2mt.o(i._posix_memalign$realtime$concurrent) refers to fdtree.o(i._FDTree_RemoveNode) for _FDTree_RemoveNode
    heap2mt.o(i._posix_memalign$realtime$concurrent) refers to fdtree.o(i._FDTree_Insert) for _FDTree_Insert
    heap2mt.o(i._realloc$realtime$concurrent) refers to rt_heap_descriptor.o(.text) for __rt_heap_descriptor
    heap2mt.o(i._realloc$realtime$concurrent) refers to h1_free.o(.text) for free
    heap2mt.o(i._realloc$realtime$concurrent) refers to h1_alloc.o(.text) for malloc
    heap2mt.o(i._realloc$realtime$concurrent) refers to fdtree.o(i._FDTree_Delete) for _FDTree_Delete
    heap2mt.o(i._realloc$realtime$concurrent) refers to fdtree.o(i._FDTree_Insert) for _FDTree_Insert
    heap2mt.o(i._realloc$realtime$concurrent) refers to rt_memcpy_w.o(.text) for __aeabi_memcpy4
    llsdiv.o(.text) refers to lludiv5.o(.text) for __aeabi_uldivmod
    tolower.o(.text) refers to rt_ctype_table.o(.text) for __rt_ctype_table
    __2sprintf.o(.text) refers to _printf_char_common.o(.text) for _printf_char_common
    __2sprintf.o(.text) refers to _sputc.o(.text) for _sputc
    noretval__2sprintf.o(.text) refers to _printf_char_common.o(.text) for _printf_char_common
    noretval__2sprintf.o(.text) refers to _sputc.o(.text) for _sputc
    __printf.o(.text) refers to _printf_percent.o(.ARM.Collect$$_printf_percent$$00000000) for _printf_percent
    _printf_str.o(.text) refers (Special) to _printf_char.o(.text) for _printf_cs_common
    _printf_str.o(.text) refers (Weak) to _printf_pad.o(.text) for _printf_pre_padding
    _printf_str.o(.text) refers (Weak) to _printf_pad.o(.text) for _printf_post_padding
    _printf_dec.o(.text) refers to rtudiv10.o(.text) for __rt_udiv10
    _printf_dec.o(.text) refers to _printf_intcommon.o(.text) for _printf_int_common
    _printf_hex_ll.o(.text) refers to _printf_intcommon.o(.text) for _printf_int_common
    _printf_hex_ll.o(.text) refers to _printf_hex_ll.o(.constdata) for .constdata
    _printf_hex_int.o(.text) refers to _printf_intcommon.o(.text) for _printf_int_common
    _printf_hex_int.o(.text) refers to _printf_hex_int.o(.constdata) for .constdata
    _printf_hex_int_ll.o(.text) refers to _printf_intcommon.o(.text) for _printf_int_common
    _printf_hex_int_ll.o(.text) refers to _printf_hex_int_ll.o(.constdata) for .constdata
    _printf_hex_ptr.o(.text) refers to _printf_intcommon.o(.text) for _printf_int_common
    _printf_hex_ptr.o(.text) refers to _printf_hex_ptr.o(.constdata) for .constdata
    _printf_hex_int_ptr.o(.text) refers to _printf_intcommon.o(.text) for _printf_int_common
    _printf_hex_int_ptr.o(.text) refers to _printf_hex_int_ptr.o(.constdata) for .constdata
    _printf_hex_ll_ptr.o(.text) refers to _printf_intcommon.o(.text) for _printf_int_common
    _printf_hex_ll_ptr.o(.text) refers to _printf_hex_ll_ptr.o(.constdata) for .constdata
    _printf_hex_int_ll_ptr.o(.text) refers to _printf_intcommon.o(.text) for _printf_int_common
    _printf_hex_int_ll_ptr.o(.text) refers to _printf_hex_int_ll_ptr.o(.constdata) for .constdata
    __printf_flags.o(.text) refers to _printf_percent.o(.ARM.Collect$$_printf_percent$$00000000) for _printf_percent
    __printf_flags.o(.text) refers to __printf_flags.o(.constdata) for .constdata
    __printf_ss.o(.text) refers to _printf_percent.o(.ARM.Collect$$_printf_percent$$00000000) for _printf_percent
    __printf_flags_ss.o(.text) refers to _printf_percent.o(.ARM.Collect$$_printf_percent$$00000000) for _printf_percent
    __printf_flags_ss.o(.text) refers to __printf_flags_ss.o(.constdata) for .constdata
    __printf_wp.o(.text) refers to __printf_wp.o(i._is_digit) for _is_digit
    __printf_wp.o(.text) refers to _printf_percent.o(.ARM.Collect$$_printf_percent$$00000000) for _printf_percent
    __printf_flags_wp.o(.text) refers to __printf_wp.o(i._is_digit) for _is_digit
    __printf_flags_wp.o(.text) refers to _printf_percent.o(.ARM.Collect$$_printf_percent$$00000000) for _printf_percent
    __printf_flags_wp.o(.text) refers to __printf_flags_wp.o(.constdata) for .constdata
    __printf_ss_wp.o(.text) refers to __printf_wp.o(i._is_digit) for _is_digit
    __printf_ss_wp.o(.text) refers to _printf_percent.o(.ARM.Collect$$_printf_percent$$00000000) for _printf_percent
    __printf_flags_ss_wp.o(.text) refers to __printf_wp.o(i._is_digit) for _is_digit
    __printf_flags_ss_wp.o(.text) refers to _printf_percent.o(.ARM.Collect$$_printf_percent$$00000000) for _printf_percent
    __printf_flags_ss_wp.o(.text) refers to __printf_flags_ss_wp.o(.constdata) for .constdata
    _printf_c.o(.ARM.Collect$$_printf_percent$$00000013) refers (Weak) to _printf_char.o(.text) for _printf_char
    _printf_s.o(.ARM.Collect$$_printf_percent$$00000014) refers (Weak) to _printf_char.o(.text) for _printf_string
    _printf_x.o(.ARM.Collect$$_printf_percent$$0000000C) refers (Weak) to _printf_hex_int.o(.text) for _printf_int_hex
    _printf_d.o(.ARM.Collect$$_printf_percent$$00000009) refers (Weak) to _printf_dec.o(.text) for _printf_int_dec
    _printf_u.o(.ARM.Collect$$_printf_percent$$0000000A) refers (Weak) to _printf_dec.o(.text) for _printf_int_dec
    _printf_f.o(.ARM.Collect$$_printf_percent$$00000003) refers (Weak) to printf1.o(x$fpl$printf1) for _printf_fp_dec
    _printf_e.o(.ARM.Collect$$_printf_percent$$00000004) refers (Weak) to printf1.o(x$fpl$printf1) for _printf_fp_dec
    _printf_percent.o(.ARM.Collect$$_printf_percent$$00000000) refers (Special) to _printf_percent_end.o(.ARM.Collect$$_printf_percent$$00000017) for _printf_percent_end
    atoi.o(.text) refers to rt_errno_addr.o(.text) for __aeabi_errno_addr
    atoi.o(.text) refers to strtol.o(.text) for strtol
    lldiv.o(.text) refers to llsdiv.o(.text) for __aeabi_ldivmod
    qsortnoex.o(.text) refers to aeabi_sdiv.o(.text_udiv) for __aeabi_uidivmod
    rt_memcpy.o(.text) refers to rt_memcpy_w.o(.text) for __aeabi_memcpy4
    aeabi_memset.o(.text) refers to rt_memclr.o(.text) for _memset
    rt_memclr.o(.text) refers to rt_memclr_w.o(.text) for _memset_w
    strncpy.o(.text) refers to rt_memclr.o(.text) for __aeabi_memclr
    mktime.o(.text) refers to aeabi_sdiv.o(.text) for __aeabi_idivmod
    mktime.o(.text) refers to _monlen.o(.constdata) for _monlen
    aeabi_sdiv.o(.text_udiv) refers to aeabi_sdiv.o(.text) for __arm_div2
    aeabi_sdiv_div0.o(.text_udiv) refers to aeabi_sdiv_div0.o(.text) for __arm_div2
    __main.o(!!!main) refers to rtentry.o(.ARM.Collect$$rtentry$$00000000) for __rt_entry
    d2f.o(x$fpl$d2f) refers (Special) to usenofp.o(x$fpl$usenofp) for __I$use$fp
    d2f.o(x$fpl$d2f) refers to fretinf.o(x$fpl$fretinf) for __fpl_fretinf
    d2f.o(x$fpl$d2f) refers to dnaninf.o(x$fpl$dnaninf) for __fpl_dnaninf
    daddsub_clz.o(x$fpl$dadd) refers (Special) to usenofp.o(x$fpl$usenofp) for __I$use$fp
    daddsub_clz.o(x$fpl$dadd) refers to daddsub_clz.o(x$fpl$dsub) for _dsub1
    daddsub_clz.o(x$fpl$dadd) refers to dretinf.o(x$fpl$dretinf) for __fpl_dretinf
    daddsub_clz.o(x$fpl$dadd) refers to dnaninf.o(x$fpl$dnaninf) for __fpl_dnaninf
    daddsub_clz.o(x$fpl$drsb) refers (Special) to usenofp.o(x$fpl$usenofp) for __I$use$fp
    daddsub_clz.o(x$fpl$drsb) refers to daddsub_clz.o(x$fpl$dadd) for _dadd1
    daddsub_clz.o(x$fpl$drsb) refers to daddsub_clz.o(x$fpl$dsub) for _dsub1
    daddsub_clz.o(x$fpl$dsub) refers (Special) to usenofp.o(x$fpl$usenofp) for __I$use$fp
    daddsub_clz.o(x$fpl$dsub) refers to daddsub_clz.o(x$fpl$dadd) for _dadd1
    daddsub_clz.o(x$fpl$dsub) refers to dnaninf.o(x$fpl$dnaninf) for __fpl_dnaninf
    ddiv.o(x$fpl$drdiv) refers (Special) to usenofp.o(x$fpl$usenofp) for __I$use$fp
    ddiv.o(x$fpl$drdiv) refers to ddiv.o(x$fpl$ddiv) for ddiv_entry
    ddiv.o(x$fpl$ddiv) refers (Special) to usenofp.o(x$fpl$usenofp) for __I$use$fp
    ddiv.o(x$fpl$ddiv) refers to dretinf.o(x$fpl$dretinf) for __fpl_dretinf
    ddiv.o(x$fpl$ddiv) refers to dnaninf.o(x$fpl$dnaninf) for __fpl_dnaninf
    deqf.o(x$fpl$deqf) refers (Special) to usenofp.o(x$fpl$usenofp) for __I$use$fp
    deqf.o(x$fpl$deqf) refers to dnaninf.o(x$fpl$dnaninf) for __fpl_dnaninf
    deqf.o(x$fpl$deqf) refers to dcmpi.o(x$fpl$dcmpinf) for __fpl_dcmp_Inf
    dfix.o(x$fpl$dfix) refers (Special) to usenofp.o(x$fpl$usenofp) for __I$use$fp
    dfix.o(x$fpl$dfix) refers to dnaninf.o(x$fpl$dnaninf) for __fpl_dnaninf
    dfix.o(x$fpl$dfixr) refers (Special) to usenofp.o(x$fpl$usenofp) for __I$use$fp
    dfix.o(x$fpl$dfixr) refers to dnaninf.o(x$fpl$dnaninf) for __fpl_dnaninf
    dflt_clz.o(x$fpl$dfltu) refers (Special) to usenofp.o(x$fpl$usenofp) for __I$use$fp
    dflt_clz.o(x$fpl$dflt) refers (Special) to usenofp.o(x$fpl$usenofp) for __I$use$fp
    dflt_clz.o(x$fpl$dfltn) refers (Special) to usenofp.o(x$fpl$usenofp) for __I$use$fp
    dleqf.o(x$fpl$dleqf) refers (Special) to usenofp.o(x$fpl$usenofp) for __I$use$fp
    dleqf.o(x$fpl$dleqf) refers to dnaninf.o(x$fpl$dnaninf) for __fpl_dnaninf
    dleqf.o(x$fpl$dleqf) refers to dcmpi.o(x$fpl$dcmpinf) for __fpl_dcmp_Inf
    dmul.o(x$fpl$dmul) refers (Special) to usenofp.o(x$fpl$usenofp) for __I$use$fp
    dmul.o(x$fpl$dmul) refers to dretinf.o(x$fpl$dretinf) for __fpl_dretinf
    dmul.o(x$fpl$dmul) refers to dnaninf.o(x$fpl$dnaninf) for __fpl_dnaninf
    drleqf.o(x$fpl$drleqf) refers (Special) to usenofp.o(x$fpl$usenofp) for __I$use$fp
    drleqf.o(x$fpl$drleqf) refers to dleqf.o(x$fpl$dleqf) for __fpl_dcmple_InfNaN
    f2d.o(x$fpl$f2d) refers (Special) to usenofp.o(x$fpl$usenofp) for __I$use$fp
    f2d.o(x$fpl$f2d) refers to fnaninf.o(x$fpl$fnaninf) for __fpl_fnaninf
    f2d.o(x$fpl$f2d) refers to dretinf.o(x$fpl$dretinf) for __fpl_dretinf
    ffixu.o(x$fpl$ffixu) refers (Special) to usenofp.o(x$fpl$usenofp) for __I$use$fp
    ffixu.o(x$fpl$ffixu) refers to fnaninf.o(x$fpl$fnaninf) for __fpl_fnaninf
    ffixu.o(x$fpl$ffixur) refers (Special) to usenofp.o(x$fpl$usenofp) for __I$use$fp
    ffixu.o(x$fpl$ffixur) refers to fnaninf.o(x$fpl$fnaninf) for __fpl_fnaninf
    fflt_clz.o(x$fpl$ffltu) refers (Special) to usenofp.o(x$fpl$usenofp) for __I$use$fp
    fflt_clz.o(x$fpl$fflt) refers (Special) to usenofp.o(x$fpl$usenofp) for __I$use$fp
    fflt_clz.o(x$fpl$ffltn) refers (Special) to usenofp.o(x$fpl$usenofp) for __I$use$fp
    fmul.o(x$fpl$fmul) refers (Special) to usenofp.o(x$fpl$usenofp) for __I$use$fp
    fmul.o(x$fpl$fmul) refers to fretinf.o(x$fpl$fretinf) for __fpl_fretinf
    fmul.o(x$fpl$fmul) refers to fnaninf.o(x$fpl$fnaninf) for __fpl_fnaninf
    printf1.o(x$fpl$printf1) refers to _printf_fp_dec.o(.text) for _printf_fp_dec_real
    floor.o(i.__softfp_floor) refers (Special) to usenofp.o(x$fpl$usenofp) for __I$use$fp
    floor.o(i.__softfp_floor) refers to floor.o(i.floor) for floor
    floor.o(i.floor) refers (Special) to usenofp.o(x$fpl$usenofp) for __I$use$fp
    floor.o(i.floor) refers to daddsub_clz.o(x$fpl$dadd) for __aeabi_dadd
    floor.o(i.floor) refers to drleqf.o(x$fpl$drleqf) for __aeabi_cdrcmple
    floor.o(i.floor) refers to daddsub_clz.o(x$fpl$drsb) for __aeabi_drsub
    strtod.o(i.__softfp_strtod) refers (Special) to usenofp.o(x$fpl$usenofp) for __I$use$fp
    strtod.o(i.__softfp_strtod) refers to strtod.o(.text) for __strtod_int
    strtod.o(i.strtod) refers (Special) to usenofp.o(x$fpl$usenofp) for __I$use$fp
    strtod.o(i.strtod) refers to strtod.o(.text) for __strtod_int
    rtentry.o(.ARM.Collect$$rtentry$$00000000) refers (Special) to rtentry2.o(.ARM.Collect$$rtentry$$0000000A) for __rt_entry_li
    rtentry.o(.ARM.Collect$$rtentry$$00000000) refers (Special) to rtentry2.o(.ARM.Collect$$rtentry$$0000000D) for __rt_entry_main
    rtentry.o(.ARM.Collect$$rtentry$$00000000) refers (Special) to rtentry2.o(.ARM.Collect$$rtentry$$0000000C) for __rt_entry_postli_1
    rtentry.o(.ARM.Collect$$rtentry$$00000000) refers (Special) to rtentry2.o(.ARM.Collect$$rtentry$$00000009) for __rt_entry_postsh_1
    rtentry.o(.ARM.Collect$$rtentry$$00000000) refers (Special) to rtentry2.o(.ARM.Collect$$rtentry$$00000002) for __rt_entry_presh_1
    rtentry.o(.ARM.Collect$$rtentry$$00000000) refers (Special) to rtentry4.o(.ARM.Collect$$rtentry$$00000004) for __rt_entry_sh
    rt_ctype_table.o(.text) refers to rt_locale.o(.text) for __rt_locale
    rt_ctype_table.o(.text) refers to lc_ctype_c.o(locale$$code) for _get_lc_ctype
    aeabi_idiv0_sigfpe.o(.text) refers to rt_div0.o(.text) for __rt_div0
    aeabi_ldiv0_sigfpe.o(.text) refers to rt_div0.o(.text) for __rt_div0
    rt_heap_descriptor.o(.text) refers to rt_heap_descriptor.o(.bss) for __rt_heap_descriptor_data
    rt_heap_descriptor_intlibspace.o(.text) refers to libspace.o(.bss) for __libspace_start
    rt_errno_addr.o(.text) refers to rt_errno_addr.o(.bss) for __aeabi_errno_addr_data
    rt_errno_addr_intlibspace.o(.text) refers to libspace.o(.bss) for __libspace_start
    init_alloc.o(.text) refers (Special) to hguard.o(.text) for __heap$guard
    init_alloc.o(.text) refers (Special) to libinit2.o(.ARM.Collect$$libinit$$00000003) for __rt_lib_init_heap_2
    init_alloc.o(.text) refers (Special) to maybetermalloc1.o(.emb_text) for _maybe_terminate_alloc
    init_alloc.o(.text) refers to heapauxa.o(.text) for __rt_heap_expand
    init_alloc.o(.text) refers to h1_extend.o(.text) for __Heap_ProvideMemory
    init_alloc.o(.text) refers to defsig_rtmem_outer.o(.text) for __rt_SIGRTMEM
    init_alloc.o(.text) refers to rt_heap_descriptor.o(.text) for __rt_heap_descriptor
    init_alloc.o(.text) refers to h1_init.o(.text) for __Heap_Initialize
    malloc.o(.text) refers (Special) to hguard.o(.text) for __heap$guard
    malloc.o(.text) refers (Special) to init_alloc.o(.text) for _init_alloc
    malloc.o(.text) refers to rt_heap_descriptor.o(.text) for __rt_heap_descriptor
    h1_alloc.o(.text) refers (Special) to h1_init.o(.text) for __Heap_Initialize
    h1_alloc.o(.text) refers to rt_heap_descriptor.o(.text) for __rt_heap_descriptor
    h1_alloc.o(.text) refers to init_alloc.o(.text) for __Heap_Full
    h1_alloc_mt.o(.text) refers (Special) to h1_init.o(.text) for __Heap_Initialize
    h1_alloc_mt.o(.text) refers to init_alloc.o(.text) for __Heap_Full
    h1_alloc_mt.o(.text) refers to rt_heap_descriptor.o(.text) for __rt_heap_descriptor
    _printf_intcommon.o(.text) refers (Weak) to _printf_pad.o(.text) for _printf_pre_padding
    _printf_intcommon.o(.text) refers (Weak) to _printf_pad.o(.text) for _printf_pre_padding
    _printf_intcommon.o(.text) refers (Weak) to _printf_pad.o(.text) for _printf_post_padding
    _printf_fp_dec.o(.text) refers (Special) to usenofp.o(x$fpl$usenofp) for __I$use$fp
    _printf_fp_dec.o(.text) refers (Special) to lc_numeric_c.o(locale$$code) for _get_lc_numeric
    _printf_fp_dec.o(.text) refers to istatus.o(x$fpl$ieeestatus) for __ieee_status
    _printf_fp_dec.o(.text) refers to bigflt0.o(.text) for _btod_etento
    _printf_fp_dec.o(.text) refers to btod.o(CL$$btod_d2e) for _btod_d2e
    _printf_fp_dec.o(.text) refers to btod.o(CL$$btod_ediv) for _btod_ediv
    _printf_fp_dec.o(.text) refers to btod.o(CL$$btod_emul) for _btod_emul
    _printf_fp_dec.o(.text) refers to lludiv10.o(.text) for _ll_udiv10
    _printf_fp_dec.o(.text) refers to fpclassify.o(i.__ARM_fpclassify) for __ARM_fpclassify
    _printf_fp_dec.o(.text) refers to _printf_fp_infnan.o(.text) for _printf_fp_infnan
    _printf_fp_dec.o(.text) refers to rtudiv10.o(.text) for __rt_udiv10
    _printf_fp_dec.o(.text) refers (Weak) to _printf_pad.o(.text) for _printf_pre_padding
    _printf_fp_dec.o(.text) refers (Weak) to _printf_pad.o(.text) for _printf_pre_padding
    _printf_fp_dec.o(.text) refers to rt_locale.o(.text) for __rt_locale
    _printf_fp_dec.o(.text) refers (Weak) to _printf_pad.o(.text) for _printf_post_padding
    _printf_char_common.o(.text) refers to __printf_flags_ss_wp.o(.text) for __printf
    _printf_char.o(.text) refers (Weak) to _printf_str.o(.text) for _printf_str
    strtod.o(.text) refers (Special) to lc_numeric_c.o(locale$$code) for _get_lc_numeric
    strtod.o(.text) refers to scanf1.o(x$fpl$scanf1) for _scanf_real
    strtod.o(.text) refers to _sgetc.o(.text) for _sgetc
    strtod.o(.text) refers to isspace.o(.text) for isspace
    strtol.o(.text) refers to rt_ctype_table.o(.text) for __rt_ctype_table
    strtol.o(.text) refers to _strtoul.o(.text) for _strtoul
    strtol.o(.text) refers to rt_errno_addr.o(.text) for __aeabi_errno_addr
    dcmpi.o(x$fpl$dcmpinf) refers (Special) to usenofp.o(x$fpl$usenofp) for __I$use$fp
    dnaninf.o(x$fpl$dnaninf) refers (Special) to usenofp.o(x$fpl$usenofp) for __I$use$fp
    dretinf.o(x$fpl$dretinf) refers (Special) to usenofp.o(x$fpl$usenofp) for __I$use$fp
    fnaninf.o(x$fpl$fnaninf) refers (Special) to usenofp.o(x$fpl$usenofp) for __I$use$fp
    fretinf.o(x$fpl$fretinf) refers (Special) to usenofp.o(x$fpl$usenofp) for __I$use$fp
    libspace.o(.text) refers to libspace.o(.bss) for __libspace_start
    rtentry2.o(.ARM.Collect$$rtentry$$00000008) refers to boardinit2.o(.text) for _platform_post_stackheap_init
    rtentry2.o(.ARM.Collect$$rtentry$$0000000A) refers to libinit.o(.ARM.Collect$$libinit$$00000000) for __rt_lib_init
    rtentry2.o(.ARM.Collect$$rtentry$$0000000B) refers to boardinit3.o(.text) for _platform_post_lib_init
    rtentry2.o(.ARM.Collect$$rtentry$$0000000D) refers to exit.o(.text) for exit
    rtentry2.o(.ARM.Collect$$rtentry$$0000000D) refers to main.o(.text) for main
    rtentry2.o(.ARM.exidx) refers to rtentry2.o(.ARM.Collect$$rtentry$$00000001) for .ARM.Collect$$rtentry$$00000001
    rtentry2.o(.ARM.exidx) refers to rtentry2.o(.ARM.Collect$$rtentry$$00000008) for .ARM.Collect$$rtentry$$00000008
    rtentry2.o(.ARM.exidx) refers to rtentry2.o(.ARM.Collect$$rtentry$$0000000A) for .ARM.Collect$$rtentry$$0000000A
    rtentry2.o(.ARM.exidx) refers to rtentry2.o(.ARM.Collect$$rtentry$$0000000B) for .ARM.Collect$$rtentry$$0000000B
    rtentry2.o(.ARM.exidx) refers to rtentry2.o(.ARM.Collect$$rtentry$$0000000D) for .ARM.Collect$$rtentry$$0000000D
    rtentry4.o(.ARM.Collect$$rtentry$$00000004) refers to standalone.o(.text) for __user_setup_stackheap
    rtentry4.o(.ARM.exidx) refers to rtentry4.o(.ARM.Collect$$rtentry$$00000004) for .ARM.Collect$$rtentry$$00000004
    rt_div0.o(.text) refers to defsig_fpe_outer.o(.text) for __rt_SIGFPE
    rt_locale.o(.text) refers to rt_locale.o(.bss) for __rt_locale_data
    rt_locale_intlibspace.o(.text) refers to libspace.o(.bss) for __libspace_start
    maybetermalloc2.o(.emb_text) refers (Special) to term_alloc.o(.text) for _terminate_alloc
    h1_extend.o(.text) refers to h1_free.o(.text) for free
    h1_init_mt.o(.text) refers to mutex_dummy.o(.text) for _mutex_initialize
    h1_extend_mt.o(.text) refers to h1_free_mt.o(.text) for _free_internal
    isspace.o(.text) refers to rt_ctype_table.o(.text) for __rt_ctype_table
    _printf_fp_infnan.o(.text) refers (Weak) to _printf_pad.o(.text) for _printf_pre_padding
    _printf_fp_infnan.o(.text) refers (Weak) to _printf_pad.o(.text) for _printf_post_padding
    _strtoul.o(.text) refers to _chval.o(.text) for _chval
    _strtoul.o(.text) refers to rt_errno_addr.o(.text) for __aeabi_errno_addr
    bigflt0.o(.text) refers (Special) to usenofp.o(x$fpl$usenofp) for __I$use$fp
    bigflt0.o(.text) refers to aeabi_sdiv.o(.text) for __aeabi_idivmod
    bigflt0.o(.text) refers to btod.o(CL$$btod_emul) for _btod_emul
    bigflt0.o(.text) refers to btod.o(CL$$btod_ediv) for _btod_ediv
    bigflt0.o(.text) refers to bigflt0.o(.constdata) for .constdata
    bigflt0.o(.constdata) refers (Special) to usenofp.o(x$fpl$usenofp) for __I$use$fp
    btod.o(CL$$btod_d2e) refers (Special) to usenofp.o(x$fpl$usenofp) for __I$use$fp
    btod.o(CL$$btod_d2e) refers to btod.o(CL$$btod_d2e_norm_op1) for _d2e_norm_op1
    btod.o(CL$$btod_d2e_norm_op1) refers (Special) to usenofp.o(x$fpl$usenofp) for __I$use$fp
    btod.o(CL$$btod_d2e_norm_op1) refers to btod.o(CL$$btod_d2e_denorm_low) for _d2e_denorm_low
    btod.o(CL$$btod_d2e_denorm_low) refers (Special) to usenofp.o(x$fpl$usenofp) for __I$use$fp
    btod.o(CL$$btod_emul) refers (Special) to usenofp.o(x$fpl$usenofp) for __I$use$fp
    btod.o(CL$$btod_emul) refers to btod.o(CL$$btod_mult_common) for __btod_mult_common
    btod.o(CL$$btod_emul) refers to btod.o(CL$$btod_e2e) for _e2e
    btod.o(CL$$btod_ediv) refers (Special) to usenofp.o(x$fpl$usenofp) for __I$use$fp
    btod.o(CL$$btod_ediv) refers to btod.o(CL$$btod_div_common) for __btod_div_common
    btod.o(CL$$btod_ediv) refers to btod.o(CL$$btod_e2e) for _e2e
    btod.o(CL$$btod_emuld) refers (Special) to usenofp.o(x$fpl$usenofp) for __I$use$fp
    btod.o(CL$$btod_emuld) refers to btod.o(CL$$btod_mult_common) for __btod_mult_common
    btod.o(CL$$btod_emuld) refers to btod.o(CL$$btod_e2d) for _e2d
    btod.o(CL$$btod_edivd) refers (Special) to usenofp.o(x$fpl$usenofp) for __I$use$fp
    btod.o(CL$$btod_edivd) refers to btod.o(CL$$btod_div_common) for __btod_div_common
    btod.o(CL$$btod_edivd) refers to btod.o(CL$$btod_e2d) for _e2d
    btod.o(CL$$btod_e2e) refers (Special) to usenofp.o(x$fpl$usenofp) for __I$use$fp
    btod.o(CL$$btod_e2d) refers (Special) to usenofp.o(x$fpl$usenofp) for __I$use$fp
    btod.o(CL$$btod_e2d) refers to btod.o(CL$$btod_e2e) for _e2e
    btod.o(CL$$btod_mult_common) refers (Special) to usenofp.o(x$fpl$usenofp) for __I$use$fp
    btod.o(CL$$btod_div_common) refers (Special) to usenofp.o(x$fpl$usenofp) for __I$use$fp
    lc_ctype_c.o(locale$$data) refers (Special) to libinit2.o(.ARM.Collect$$libinit$$00000010) for __rt_lib_init_lc_ctype_2
    lc_ctype_c.o(locale$$code) refers (Special) to libinit2.o(.ARM.Collect$$libinit$$00000010) for __rt_lib_init_lc_ctype_2
    lc_ctype_c.o(locale$$code) refers to strcmp.o(.text) for strcmp
    lc_ctype_c.o(locale$$code) refers to lc_ctype_c.o(locale$$data) for __lcctype_c_name
    lc_numeric_c.o(locale$$data) refers (Special) to libinit2.o(.ARM.Collect$$libinit$$00000014) for __rt_lib_init_lc_numeric_2
    lc_numeric_c.o(locale$$code) refers (Special) to libinit2.o(.ARM.Collect$$libinit$$00000014) for __rt_lib_init_lc_numeric_2
    lc_numeric_c.o(locale$$code) refers to strcmp.o(.text) for strcmp
    lc_numeric_c.o(locale$$code) refers to lc_numeric_c.o(locale$$data) for __lcnum_c_name
    defsig_rtmem_outer.o(.text) refers to defsig_rtmem_inner.o(.text) for __rt_SIGRTMEM_inner
    defsig_rtmem_outer.o(.text) refers to defsig_exit.o(.text) for __sig_exit
    defsig_rtmem_formal.o(.text) refers to rt_raise.o(.text) for __rt_raise
    heapauxa.o(.text) refers to heapauxa.o(.data) for .data
    _get_argv.o(.text) refers (Special) to hrguard.o(.text) for __heap_region$guard
    _get_argv.o(.text) refers to h1_alloc.o(.text) for malloc
    _get_argv.o(.text) refers to defsig_rtmem_outer.o(.text) for __rt_SIGRTMEM
    _get_argv.o(.text) refers to sys_command.o(.text) for _sys_command_string
    libinit2.o(.ARM.Collect$$libinit$$00000001) refers to fpinit.o(x$fpl$fpinit) for _fp_init
    libinit2.o(.ARM.Collect$$libinit$$00000003) refers (Weak) to init_alloc.o(.text) for _init_alloc
    libinit2.o(.ARM.Collect$$libinit$$0000000D) refers (Weak) to rt_locale.o(.text) for __rt_locale
    libinit2.o(.ARM.Collect$$libinit$$0000000E) refers to libinit2.o(.ARM.Collect$$libinit$$0000000D) for .ARM.Collect$$libinit$$0000000D
    libinit2.o(.ARM.Collect$$libinit$$00000010) refers to libinit2.o(.ARM.Collect$$libinit$$0000000D) for .ARM.Collect$$libinit$$0000000D
    libinit2.o(.ARM.Collect$$libinit$$00000010) refers (Weak) to lc_ctype_c.o(locale$$code) for _get_lc_ctype
    libinit2.o(.ARM.Collect$$libinit$$00000012) refers to libinit2.o(.ARM.Collect$$libinit$$0000000D) for .ARM.Collect$$libinit$$0000000D
    libinit2.o(.ARM.Collect$$libinit$$00000014) refers to libinit2.o(.ARM.Collect$$libinit$$0000000D) for .ARM.Collect$$libinit$$0000000D
    libinit2.o(.ARM.Collect$$libinit$$00000014) refers (Weak) to lc_numeric_c.o(locale$$code) for _get_lc_numeric
    libinit2.o(.ARM.Collect$$libinit$$00000016) refers to libinit2.o(.ARM.Collect$$libinit$$0000000D) for .ARM.Collect$$libinit$$0000000D
    libinit2.o(.ARM.Collect$$libinit$$00000024) refers to argv_veneer.o(.emb_text) for __ARM_argv_veneer
    libinit2.o(.ARM.Collect$$libinit$$00000025) refers to argv_veneer.o(.emb_text) for __ARM_argv_veneer
    istatus.o(x$fpl$ieeestatus) refers (Special) to usenofp.o(x$fpl$usenofp) for __I$use$fp
    scanf1.o(x$fpl$scanf1) refers to scanf_fp.o(.text) for _scanf_really_real
    fpclassify.o(i.__ARM_fpclassify) refers (Special) to usenofp.o(x$fpl$usenofp) for __I$use$fp
    sys_command.o(.text) refers (Special) to use_no_semi.o(.text) for __I$use$semihosting
    sys_command.o(.text) refers (Special) to indicate_semi.o(.text) for __semihosting_library_function
    rt_raise.o(.text) refers to __raise.o(.text) for __raise
    rt_raise.o(.text) refers to standalone.o(.text) for _sys_exit
    term_alloc.o(.text) refers (Special) to libshutdown2.o(.ARM.Collect$$libshutdown$$0000000D) for __rt_lib_shutdown_heap_2
    term_alloc.o(.text) refers to rt_heap_descriptor.o(.text) for __rt_heap_descriptor
    scanf_fp.o(.text) refers (Special) to usenofp.o(x$fpl$usenofp) for __I$use$fp
    scanf_fp.o(.text) refers (Special) to lc_numeric_c.o(locale$$code) for _get_lc_numeric
    scanf_fp.o(.text) refers to llmul.o(.text) for __aeabi_lmul
    scanf_fp.o(.text) refers to istatus.o(x$fpl$ieeestatus) for __ieee_status
    scanf_fp.o(.text) refers to rt_errno_addr.o(.text) for __aeabi_errno_addr
    scanf_fp.o(.text) refers to bigflt0.o(.text) for _btod_etento
    scanf_fp.o(.text) refers to btod.o(CL$$btod_emuld) for _btod_emuld
    scanf_fp.o(.text) refers to btod.o(CL$$btod_edivd) for _btod_edivd
    scanf_fp.o(.text) refers to rt_locale.o(.text) for __rt_locale
    scanf_fp.o(.text) refers to scanf2.o(x$fpl$scanf2) for _scanf_infnan
    scanf_fp.o(.text) refers to __printf_wp.o(i._is_digit) for _is_digit
    scanf_fp.o(.text) refers to fpconst.o(c$$dinf) for __huge_val
    scanf_fp.o(.text) refers to narrow.o(i.__mathlib_narrow) for __mathlib_narrow
    exit.o(.text) refers to rtexit.o(.ARM.Collect$$rtexit$$00000000) for __rt_exit
    defsig_exit.o(.text) refers to standalone.o(.text) for _sys_exit
    defsig_fpe_outer.o(.text) refers to defsig_fpe_inner.o(.text) for __rt_SIGFPE_inner
    defsig_fpe_outer.o(.text) refers to defsig_exit.o(.text) for __sig_exit
    defsig_fpe_formal.o(.text) refers to rt_raise.o(.text) for __rt_raise
    defsig_rtmem_inner.o(.text) refers to defsig_general.o(.text) for __default_signal_display
    argv_veneer.o(.emb_text) refers to no_argv.o(.text) for __ARM_get_argv
    libinit.o(.ARM.Collect$$libinit$$00000000) refers (Special) to libinit2.o(.ARM.Collect$$libinit$$0000002C) for __rt_lib_init_alloca_1
    libinit.o(.ARM.Collect$$libinit$$00000000) refers (Special) to libinit2.o(.ARM.Collect$$libinit$$0000002A) for __rt_lib_init_argv_1
    libinit.o(.ARM.Collect$$libinit$$00000000) refers (Special) to libinit2.o(.ARM.Collect$$libinit$$00000019) for __rt_lib_init_atexit_1
    libinit.o(.ARM.Collect$$libinit$$00000000) refers (Special) to libinit2.o(.ARM.Collect$$libinit$$0000001F) for __rt_lib_init_clock_1
    libinit.o(.ARM.Collect$$libinit$$00000000) refers (Special) to libinit2.o(.ARM.Collect$$libinit$$00000030) for __rt_lib_init_cpp_1
    libinit.o(.ARM.Collect$$libinit$$00000000) refers (Special) to libinit2.o(.ARM.Collect$$libinit$$0000002E) for __rt_lib_init_exceptions_1
    libinit.o(.ARM.Collect$$libinit$$00000000) refers (Special) to libinit2.o(.ARM.Collect$$libinit$$00000002) for __rt_lib_init_fp_1
    libinit.o(.ARM.Collect$$libinit$$00000000) refers (Special) to libinit2.o(.ARM.Collect$$libinit$$0000001D) for __rt_lib_init_fp_trap_1
    libinit.o(.ARM.Collect$$libinit$$00000000) refers (Special) to libinit2.o(.ARM.Collect$$libinit$$00000021) for __rt_lib_init_getenv_1
    libinit.o(.ARM.Collect$$libinit$$00000000) refers (Special) to libinit2.o(.ARM.Collect$$libinit$$00000008) for __rt_lib_init_heap_1
    libinit.o(.ARM.Collect$$libinit$$00000000) refers (Special) to libinit2.o(.ARM.Collect$$libinit$$0000000F) for __rt_lib_init_lc_collate_1
    libinit.o(.ARM.Collect$$libinit$$00000000) refers (Special) to libinit2.o(.ARM.Collect$$libinit$$00000011) for __rt_lib_init_lc_ctype_1
    libinit.o(.ARM.Collect$$libinit$$00000000) refers (Special) to libinit2.o(.ARM.Collect$$libinit$$00000013) for __rt_lib_init_lc_monetary_1
    libinit.o(.ARM.Collect$$libinit$$00000000) refers (Special) to libinit2.o(.ARM.Collect$$libinit$$00000015) for __rt_lib_init_lc_numeric_1
    libinit.o(.ARM.Collect$$libinit$$00000000) refers (Special) to libinit2.o(.ARM.Collect$$libinit$$00000017) for __rt_lib_init_lc_time_1
    libinit.o(.ARM.Collect$$libinit$$00000000) refers (Special) to libinit2.o(.ARM.Collect$$libinit$$0000000C) for __rt_lib_init_rand_1
    libinit.o(.ARM.Collect$$libinit$$00000000) refers (Special) to libinit2.o(.ARM.Collect$$libinit$$00000031) for __rt_lib_init_return
    libinit.o(.ARM.Collect$$libinit$$00000000) refers (Special) to libinit2.o(.ARM.Collect$$libinit$$0000001B) for __rt_lib_init_signal_1
    libinit.o(.ARM.Collect$$libinit$$00000000) refers (Special) to libinit2.o(.ARM.Collect$$libinit$$00000023) for __rt_lib_init_stdio_1
    libinit.o(.ARM.Collect$$libinit$$00000000) refers (Special) to libinit2.o(.ARM.Collect$$libinit$$0000000A) for __rt_lib_init_user_alloc_1
    rtexit.o(.ARM.Collect$$rtexit$$00000000) refers (Special) to rtexit2.o(.ARM.Collect$$rtexit$$00000004) for __rt_exit_exit
    rtexit.o(.ARM.Collect$$rtexit$$00000000) refers (Special) to rtexit2.o(.ARM.Collect$$rtexit$$00000003) for __rt_exit_ls
    rtexit.o(.ARM.Collect$$rtexit$$00000000) refers (Special) to rtexit2.o(.ARM.Collect$$rtexit$$00000002) for __rt_exit_prels_1
    rtexit.o(.ARM.exidx) refers (Special) to rtexit2.o(.ARM.Collect$$rtexit$$00000004) for __rt_exit_exit
    rtexit.o(.ARM.exidx) refers (Special) to rtexit2.o(.ARM.Collect$$rtexit$$00000003) for __rt_exit_ls
    rtexit.o(.ARM.exidx) refers (Special) to rtexit2.o(.ARM.Collect$$rtexit$$00000002) for __rt_exit_prels_1
    rtexit.o(.ARM.exidx) refers to rtexit.o(.ARM.Collect$$rtexit$$00000000) for .ARM.Collect$$rtexit$$00000000
    __raise.o(.text) refers to defsig.o(CL$$defsig) for __default_signal_handler
    defsig_general.o(.text) refers to standalone.o(.text) for _ttywrch
    defsig_fpe_inner.o(.text) refers to defsig_general.o(.text) for __default_signal_display
    _get_argv_nomalloc.o(.text) refers (Special) to hrguard.o(.text) for __heap_region$guard
    _get_argv_nomalloc.o(.text) refers to defsig_rtmem_outer.o(.text) for __rt_SIGRTMEM
    _get_argv_nomalloc.o(.text) refers to sys_command.o(.text) for _sys_command_string
    libshutdown2.o(.ARM.Collect$$libshutdown$$0000000C) refers (Weak) to term_alloc.o(.text) for _terminate_alloc
    fpconst.o(c$$dinf) refers (Special) to usenofp.o(x$fpl$usenofp) for __I$use$fp
    fpconst.o(c$$dnan) refers (Special) to usenofp.o(x$fpl$usenofp) for __I$use$fp
    fpconst.o(c$$finf) refers (Special) to usenofp.o(x$fpl$usenofp) for __I$use$fp
    scanf2.o(x$fpl$scanf2) refers to scanf_hexfp.o(.text) for _scanf_really_hex_real
    scanf2.o(x$fpl$scanf2) refers to scanf_infnan.o(.text) for _scanf_really_infnan
    scanf2b.o(x$fpl$scanf2) refers to scanf_hexfp.o(.text) for _scanf_really_hex_real
    scanf2b.o(x$fpl$scanf2) refers to scanf_infnan.o(.text) for _scanf_really_infnan
    narrow.o(i.__mathlib_narrow) refers (Special) to usenofp.o(x$fpl$usenofp) for __I$use$fp
    narrow.o(i.__mathlib_narrow) refers to narrow.o(i.__mathlib_tofloat) for __mathlib_tofloat
    narrow.o(i.__mathlib_tofloat) refers (Special) to usenofp.o(x$fpl$usenofp) for __I$use$fp
    narrow.o(i.__mathlib_tofloat) refers to frexp.o(i.frexp) for frexp
    narrow.o(i.__mathlib_tofloat) refers to deqf.o(x$fpl$deqf) for __aeabi_cdcmpeq
    narrow.o(i.__mathlib_tofloat) refers to d2f.o(x$fpl$d2f) for __aeabi_d2f
    narrow.o(i.__mathlib_tofloat) refers to _rserrno.o(.text) for __set_errno
    narrow.o(i.__mathlib_tofloat) refers to drleqf.o(x$fpl$drleqf) for __aeabi_cdrcmple
    narrow.o(i.__softfp___mathlib_tofloat) refers (Special) to usenofp.o(x$fpl$usenofp) for __I$use$fp
    narrow.o(i.__softfp___mathlib_tofloat) refers to narrow.o(i.__mathlib_tofloat) for __mathlib_tofloat
    rtexit2.o(.ARM.Collect$$rtexit$$00000003) refers to libshutdown.o(.ARM.Collect$$libshutdown$$00000000) for __rt_lib_shutdown
    rtexit2.o(.ARM.Collect$$rtexit$$00000004) refers to standalone.o(.text) for _sys_exit
    rtexit2.o(.ARM.exidx) refers to rtexit2.o(.ARM.Collect$$rtexit$$00000001) for .ARM.Collect$$rtexit$$00000001
    rtexit2.o(.ARM.exidx) refers to rtexit2.o(.ARM.Collect$$rtexit$$00000003) for .ARM.Collect$$rtexit$$00000003
    rtexit2.o(.ARM.exidx) refers to rtexit2.o(.ARM.Collect$$rtexit$$00000004) for .ARM.Collect$$rtexit$$00000004
    _rserrno.o(.text) refers to rt_errno_addr.o(.text) for __aeabi_errno_addr
    scanf_hexfp.o(.text) refers to _chval.o(.text) for _chval
    scanf_hexfp.o(.text) refers to llshl.o(.text) for __aeabi_llsl
    scanf_hexfp.o(.text) refers to istatus.o(x$fpl$ieeestatus) for __ieee_status
    scanf_hexfp.o(.text) refers to ldexp.o(i.__support_ldexp) for __support_ldexp
    scanf_hexfp.o(.text) refers to narrow.o(i.__mathlib_narrow) for __mathlib_narrow
    defsig.o(CL$$defsig) refers to defsig_fpe_inner.o(.text) for __rt_SIGFPE_inner
    defsig.o(CL$$defsig) refers to defsig_rtmem_inner.o(.text) for __rt_SIGRTMEM_inner
    frexp.o(i.__softfp_frexp) refers (Special) to usenofp.o(x$fpl$usenofp) for __I$use$fp
    frexp.o(i.__softfp_frexp) refers to scalbn.o(x$fpl$scalbn) for __ARM_scalbn
    frexp.o(i.frexp) refers (Special) to usenofp.o(x$fpl$usenofp) for __I$use$fp
    frexp.o(i.frexp) refers to scalbn.o(x$fpl$scalbn) for __ARM_scalbn
    defsig_abrt_inner.o(.text) refers to defsig_general.o(.text) for __default_signal_display
    defsig_rtred_inner.o(.text) refers to defsig_general.o(.text) for __default_signal_display
    defsig_stak_inner.o(.text) refers to defsig_general.o(.text) for __default_signal_display
    defsig_pvfn_inner.o(.text) refers to defsig_general.o(.text) for __default_signal_display
    defsig_cppl_inner.o(.text) refers to defsig_general.o(.text) for __default_signal_display
    defsig_segv_inner.o(.text) refers to defsig_general.o(.text) for __default_signal_display
    defsig_other.o(.text) refers to defsig_general.o(.text) for __default_signal_display
    libshutdown.o(.ARM.Collect$$libshutdown$$00000000) refers (Special) to libshutdown2.o(.ARM.Collect$$libshutdown$$00000006) for __rt_lib_shutdown_fp_trap_1
    libshutdown.o(.ARM.Collect$$libshutdown$$00000000) refers (Special) to libshutdown2.o(.ARM.Collect$$libshutdown$$0000000E) for __rt_lib_shutdown_heap_1
    libshutdown.o(.ARM.Collect$$libshutdown$$00000000) refers (Special) to libshutdown2.o(.ARM.Collect$$libshutdown$$0000000F) for __rt_lib_shutdown_return
    libshutdown.o(.ARM.Collect$$libshutdown$$00000000) refers (Special) to libshutdown2.o(.ARM.Collect$$libshutdown$$00000009) for __rt_lib_shutdown_signal_1
    libshutdown.o(.ARM.Collect$$libshutdown$$00000000) refers (Special) to libshutdown2.o(.ARM.Collect$$libshutdown$$00000003) for __rt_lib_shutdown_stdio_1
    libshutdown.o(.ARM.Collect$$libshutdown$$00000000) refers (Special) to libshutdown2.o(.ARM.Collect$$libshutdown$$0000000B) for __rt_lib_shutdown_user_alloc_1
    scalbn.o(x$fpl$scalbn) refers (Special) to usenofp.o(x$fpl$usenofp) for __I$use$fp
    scalbn.o(x$fpl$scalbn) refers to dcheck1.o(x$fpl$dcheck1) for __fpl_dcheck_NaN1
    ldexp.o(i.__softfp_ldexp) refers (Special) to usenofp.o(x$fpl$usenofp) for __I$use$fp
    ldexp.o(i.__softfp_ldexp) refers to ldexp.o(i.ldexp) for ldexp
    ldexp.o(i.__support_ldexp) refers (Special) to usenofp.o(x$fpl$usenofp) for __I$use$fp
    ldexp.o(i.__support_ldexp) refers to ldexp.o(i.ldexp) for ldexp
    ldexp.o(i.ldexp) refers (Special) to usenofp.o(x$fpl$usenofp) for __I$use$fp
    ldexp.o(i.ldexp) refers to deqf.o(x$fpl$deqf) for __aeabi_cdcmpeq
    ldexp.o(i.ldexp) refers to scalbn.o(x$fpl$scalbn) for __ARM_scalbn
    ldexp.o(i.ldexp) refers to _rserrno.o(.text) for __set_errno
    ldexp.o(i.ldexp) refers to dunder.o(i.__mathlib_dbl_underflow) for __mathlib_dbl_underflow
    ldexp_x.o(i.____softfp_ldexp$lsc) refers (Special) to usenofp.o(x$fpl$usenofp) for __I$use$fp
    ldexp_x.o(i.____softfp_ldexp$lsc) refers to ldexp_x.o(i.__ldexp$lsc) for __ldexp$lsc
    ldexp_x.o(i.____support_ldexp$lsc) refers (Special) to usenofp.o(x$fpl$usenofp) for __I$use$fp
    ldexp_x.o(i.____support_ldexp$lsc) refers to ldexp_x.o(i.__ldexp$lsc) for __ldexp$lsc
    ldexp_x.o(i.__ldexp$lsc) refers (Special) to usenofp.o(x$fpl$usenofp) for __I$use$fp
    ldexp_x.o(i.__ldexp$lsc) refers to deqf.o(x$fpl$deqf) for __aeabi_cdcmpeq
    ldexp_x.o(i.__ldexp$lsc) refers to scalbn.o(x$fpl$scalbn) for __ARM_scalbn
    ldexp_x.o(i.__ldexp$lsc) refers to _rserrno.o(.text) for __set_errno
    ldexp_x.o(i.__ldexp$lsc) refers to qnan.o(.constdata) for __mathlib_zero
    dcheck1.o(x$fpl$dcheck1) refers (Special) to usenofp.o(x$fpl$usenofp) for __I$use$fp
    dcheck1.o(x$fpl$dcheck1) refers to retnan.o(x$fpl$retnan) for __fpl_return_NaN
    dunder.o(i.__mathlib_dbl_underflow) refers to scalbn.o(x$fpl$scalbn) for __ARM_scalbn
    qnan.o(.constdata) refers (Special) to usenofp.o(x$fpl$usenofp) for __I$use$fp
    retnan.o(x$fpl$retnan) refers (Special) to usenofp.o(x$fpl$usenofp) for __I$use$fp
    retnan.o(x$fpl$retnan) refers to trapv.o(x$fpl$trapveneer) for __fpl_cmpreturn
    trapv.o(x$fpl$trapveneer) refers (Special) to usenofp.o(x$fpl$usenofp) for __I$use$fp


==============================================================================

Removing Unused input sections from the image.

    Removing pwm.o(.text), (4808 bytes).
    Removing pwm.o(.data), (17 bytes).
    Removing user.o(.text), (292 bytes).
    Removing user.o(.conststring), (11 bytes).
    Removing user.o(.data), (16 bytes).
    Removing pct08cmdlib.o(.text), (1492 bytes).
    Removing pct08cmdlib.o(.bss), (1049616 bytes).
    Removing pct08cmdlib.o(.constdata), (99 bytes).
    Removing pct08cmdlib.o(.data), (64 bytes).
    Removing pct08drv.o(.text), (480 bytes).
    Removing pct08drv.o(.data), (4 bytes).
    Removing cjson_utils.o(.text), (5352 bytes).
    Removing nand_util.o(.text), (2616 bytes).
    Removing nand_util.o(.constdata), (76 bytes).
    Removing yaffs_error.o(.text), (104 bytes).
    Removing yaffs_error.o(.constdata), (168 bytes).
    Removing yaffs_error.o(.conststring), (140 bytes).
    Removing yaffs_packedtags1.o(.text), (388 bytes).
    Removing yaffs_packedtags1.o(.constdata), (20 bytes).

19 unused section(s) (total 1065763 bytes) removed from the image.

==============================================================================

Adding Veneers to the image

    Adding AT veneer (8 bytes, Inline) for call to '_printf_int_dec' from _printf_d.o(.ARM.Collect$$_printf_percent$$00000009).
    Adding AT veneer (8 bytes, Inline) for call to '_printf_int_hex' from _printf_x.o(.ARM.Collect$$_printf_percent$$0000000C).
    Adding AT veneer (8 bytes, Inline) for call to '_printf_char' from _printf_c.o(.ARM.Collect$$_printf_percent$$00000013).
    Adding AT veneer (8 bytes, Inline) for call to '__set_errno' from narrow.o(i.__mathlib_tofloat).
    Adding AT veneer (8 bytes, Inline) for call to '_scanf_really_hex_real' from scanf2.o(x$fpl$scanf2).
    Adding AT veneer (8 bytes, Inline) for call to '_scanf_really_infnan' from scanf2.o(x$fpl$scanf2).
    Adding AT veneer (8 bytes, Long) for call to '_printf_string' from _printf_s.o(.ARM.Collect$$_printf_percent$$00000014).
    Adding AT veneer (8 bytes, Long) for call to '_printf_fp_dec_real' from printf1.o(x$fpl$printf1).
    Adding AT veneer (8 bytes, Long) for call to '_scanf_really_real' from scanf1.o(x$fpl$scanf1).

9 Veneer(s) (total 72 bytes) added to the image.

==============================================================================

Image Symbol Table

    Local Symbols

    Symbol Name                              Value     Ov Type        Size  Object(Section)

    NUC_INIT                                 0x00000000   Section      172  startup_nuc970.o(NUC_INIT)
    ../clib/angel/boardlib.s                 0x00000000   Number         0  boardinit2.o ABSOLUTE
    ../clib/angel/boardlib.s                 0x00000000   Number         0  boardinit1.o ABSOLUTE
    ../clib/angel/boardlib.s                 0x00000000   Number         0  boardinit3.o ABSOLUTE
    ../clib/angel/boardlib.s                 0x00000000   Number         0  boardshut.o ABSOLUTE
    ../clib/angel/dczerorl2.s                0x00000000   Number         0  __dczerorl2.o ABSOLUTE
    ../clib/angel/handlers.s                 0x00000000   Number         0  __scatter_copy.o ABSOLUTE
    ../clib/angel/handlers.s                 0x00000000   Number         0  __scatter_zi.o ABSOLUTE
    ../clib/angel/kernel.s                   0x00000000   Number         0  rtexit.o ABSOLUTE
    ../clib/angel/kernel.s                   0x00000000   Number         0  rtentry2.o ABSOLUTE
    ../clib/angel/kernel.s                   0x00000000   Number         0  rtentry.o ABSOLUTE
    ../clib/angel/kernel.s                   0x00000000   Number         0  rtentry4.o ABSOLUTE
    ../clib/angel/kernel.s                   0x00000000   Number         0  rtexit2.o ABSOLUTE
    ../clib/angel/rt.s                       0x00000000   Number         0  rt_errno_addr.o ABSOLUTE
    ../clib/angel/rt.s                       0x00000000   Number         0  rt_heap_descriptor_intlibspace.o ABSOLUTE
    ../clib/angel/rt.s                       0x00000000   Number         0  rt_heap_descriptor.o ABSOLUTE
    ../clib/angel/rt.s                       0x00000000   Number         0  aeabi_ldiv0_sigfpe.o ABSOLUTE
    ../clib/angel/rt.s                       0x00000000   Number         0  aeabi_ldiv0.o ABSOLUTE
    ../clib/angel/rt.s                       0x00000000   Number         0  aeabi_idiv0_sigfpe.o ABSOLUTE
    ../clib/angel/rt.s                       0x00000000   Number         0  rt_ctype_table.o ABSOLUTE
    ../clib/angel/rt.s                       0x00000000   Number         0  rt_locale.o ABSOLUTE
    ../clib/angel/rt.s                       0x00000000   Number         0  rt_div0.o ABSOLUTE
    ../clib/angel/rt.s                       0x00000000   Number         0  aeabi_idiv0.o ABSOLUTE
    ../clib/angel/rt.s                       0x00000000   Number         0  rt_locale_intlibspace.o ABSOLUTE
    ../clib/angel/rt.s                       0x00000000   Number         0  rt_errno_addr_intlibspace.o ABSOLUTE
    ../clib/angel/rt.s                       0x00000000   Number         0  rt_raise.o ABSOLUTE
    ../clib/angel/scatter.s                  0x00000000   Number         0  __scatter.o ABSOLUTE
    ../clib/angel/startup.s                  0x00000000   Number         0  __main.o ABSOLUTE
    ../clib/angel/sys.s                      0x00000000   Number         0  use_no_semi.o ABSOLUTE
    ../clib/angel/sys.s                      0x00000000   Number         0  mutex_dummy.o ABSOLUTE
    ../clib/angel/sys.s                      0x00000000   Number         0  indicate_semi.o ABSOLUTE
    ../clib/angel/sys.s                      0x00000000   Number         0  libspace.o ABSOLUTE
    ../clib/angel/sysapp.c                   0x00000000   Number         0  sys_command.o ABSOLUTE
    ../clib/armsys.c                         0x00000000   Number         0  no_argv.o ABSOLUTE
    ../clib/armsys.c                         0x00000000   Number         0  _get_argv.o ABSOLUTE
    ../clib/armsys.c                         0x00000000   Number         0  _get_argv_nomalloc.o ABSOLUTE
    ../clib/armsys.c                         0x00000000   Number         0  argv_veneer.o ABSOLUTE
    ../clib/armsys.c                         0x00000000   Number         0  argv_veneer.o ABSOLUTE
    ../clib/bigflt.c                         0x00000000   Number         0  bigflt0.o ABSOLUTE
    ../clib/btod.s                           0x00000000   Number         0  btod.o ABSOLUTE
    ../clib/ctype.c                          0x00000000   Number         0  tolower.o ABSOLUTE
    ../clib/ctype.c                          0x00000000   Number         0  isspace.o ABSOLUTE
    ../clib/division.s                       0x00000000   Number         0  rtudiv10.o ABSOLUTE
    ../clib/division.s                       0x00000000   Number         0  aeabi_sdiv.o ABSOLUTE
    ../clib/division.s                       0x00000000   Number         0  aeabi_sdiv_div0.o ABSOLUTE
    ../clib/divrt.s                          0x00000000   Number         0  divrt_9e_div0.o ABSOLUTE
    ../clib/divrt.s                          0x00000000   Number         0  divrt_9e.o ABSOLUTE
    ../clib/fenv.c                           0x00000000   Number         0  _rserrno.o ABSOLUTE
    ../clib/heap1.c                          0x00000000   Number         0  h1_final.o ABSOLUTE
    ../clib/heap1.c                          0x00000000   Number         0  h1_final_mt.o ABSOLUTE
    ../clib/heap1.c                          0x00000000   Number         0  h1_init.o ABSOLUTE
    ../clib/heap1.c                          0x00000000   Number         0  h1_init_mt.o ABSOLUTE
    ../clib/heap1.c                          0x00000000   Number         0  h1_free.o ABSOLUTE
    ../clib/heap1.c                          0x00000000   Number         0  h1_free_mt.o ABSOLUTE
    ../clib/heap1.c                          0x00000000   Number         0  h1_extend_mt.o ABSOLUTE
    ../clib/heap1.c                          0x00000000   Number         0  h1_alloc.o ABSOLUTE
    ../clib/heap1.c                          0x00000000   Number         0  h1_alloc_mt.o ABSOLUTE
    ../clib/heap1.c                          0x00000000   Number         0  h1_extend.o ABSOLUTE
    ../clib/heap2.c                          0x00000000   Number         0  heap2.o ABSOLUTE
    ../clib/heap2.c                          0x00000000   Number         0  heap2mt.o ABSOLUTE
    ../clib/heap2.c                          0x00000000   Number         0  fdtree.o ABSOLUTE
    ../clib/heapalloc.c                      0x00000000   Number         0  malloc.o ABSOLUTE
    ../clib/heapalloc.c                      0x00000000   Number         0  init_alloc.o ABSOLUTE
    ../clib/heapalloc.c                      0x00000000   Number         0  hguard.o ABSOLUTE
    ../clib/heapalloc.c                      0x00000000   Number         0  maybetermalloc2.o ABSOLUTE
    ../clib/heapalloc.c                      0x00000000   Number         0  maybetermalloc1.o ABSOLUTE
    ../clib/heapalloc.c                      0x00000000   Number         0  maybetermalloc1.o ABSOLUTE
    ../clib/heapalloc.c                      0x00000000   Number         0  term_alloc.o ABSOLUTE
    ../clib/heapalloc.c                      0x00000000   Number         0  hrguard.o ABSOLUTE
    ../clib/heapalloc.c                      0x00000000   Number         0  free.o ABSOLUTE
    ../clib/heapalloc.c                      0x00000000   Number         0  maybetermalloc2.o ABSOLUTE
    ../clib/heapalloc.c                      0x00000000   Number         0  heapstubs.o ABSOLUTE
    ../clib/heapaux.c                        0x00000000   Number         0  heapauxa.o ABSOLUTE
    ../clib/heapaux.c                        0x00000000   Number         0  heapauxi.o ABSOLUTE
    ../clib/libinit.s                        0x00000000   Number         0  libshutdown.o ABSOLUTE
    ../clib/libinit.s                        0x00000000   Number         0  libinit2.o ABSOLUTE
    ../clib/libinit.s                        0x00000000   Number         0  libinit.o ABSOLUTE
    ../clib/libinit.s                        0x00000000   Number         0  libshutdown2.o ABSOLUTE
    ../clib/locale.s                         0x00000000   Number         0  lc_ctype_c.o ABSOLUTE
    ../clib/locale.s                         0x00000000   Number         0  lc_numeric_c.o ABSOLUTE
    ../clib/longlong.s                       0x00000000   Number         0  lludiv10.o ABSOLUTE
    ../clib/longlong.s                       0x00000000   Number         0  lludiv5.o ABSOLUTE
    ../clib/longlong.s                       0x00000000   Number         0  llshl.o ABSOLUTE
    ../clib/longlong.s                       0x00000000   Number         0  llushr.o ABSOLUTE
    ../clib/longlong.s                       0x00000000   Number         0  llsshr.o ABSOLUTE
    ../clib/longlong.s                       0x00000000   Number         0  llsdiv.o ABSOLUTE
    ../clib/longlong.s                       0x00000000   Number         0  llmul.o ABSOLUTE
    ../clib/memcpset.s                       0x00000000   Number         0  strncpy.o ABSOLUTE
    ../clib/memcpset.s                       0x00000000   Number         0  strcmp.o ABSOLUTE
    ../clib/memcpset.s                       0x00000000   Number         0  rt_memcpy_w.o ABSOLUTE
    ../clib/memcpset.s                       0x00000000   Number         0  rt_memcpy.o ABSOLUTE
    ../clib/memcpset.s                       0x00000000   Number         0  aeabi_memset.o ABSOLUTE
    ../clib/memcpset.s                       0x00000000   Number         0  rt_memclr.o ABSOLUTE
    ../clib/memcpset.s                       0x00000000   Number         0  rt_memclr_w.o ABSOLUTE
    ../clib/misc.s                           0x00000000   Number         0  printf_stubs.o ABSOLUTE
    ../clib/printf.c                         0x00000000   Number         0  noretval__2sprintf.o ABSOLUTE
    ../clib/printf.c                         0x00000000   Number         0  _printf_char.o ABSOLUTE
    ../clib/printf.c                         0x00000000   Number         0  _sputc.o ABSOLUTE
    ../clib/printf.c                         0x00000000   Number         0  _printf_char_common.o ABSOLUTE
    ../clib/printf.c                         0x00000000   Number         0  _printf_fp_dec.o ABSOLUTE
    ../clib/printf.c                         0x00000000   Number         0  _printf_intcommon.o ABSOLUTE
    ../clib/printf.c                         0x00000000   Number         0  __2sprintf.o ABSOLUTE
    ../clib/printf.c                         0x00000000   Number         0  __printf_nopercent.o ABSOLUTE
    ../clib/printf.c                         0x00000000   Number         0  _printf_fp_infnan.o ABSOLUTE
    ../clib/printf.c                         0x00000000   Number         0  __printf_flags_ss_wp.o ABSOLUTE
    ../clib/printf.c                         0x00000000   Number         0  __printf_ss_wp.o ABSOLUTE
    ../clib/printf.c                         0x00000000   Number         0  __printf_flags_wp.o ABSOLUTE
    ../clib/printf.c                         0x00000000   Number         0  __printf_wp.o ABSOLUTE
    ../clib/printf.c                         0x00000000   Number         0  __printf_flags_ss.o ABSOLUTE
    ../clib/printf.c                         0x00000000   Number         0  __printf_ss.o ABSOLUTE
    ../clib/printf.c                         0x00000000   Number         0  __printf_flags.o ABSOLUTE
    ../clib/printf.c                         0x00000000   Number         0  _printf_hex_int_ll_ptr.o ABSOLUTE
    ../clib/printf.c                         0x00000000   Number         0  _printf_hex_ll_ptr.o ABSOLUTE
    ../clib/printf.c                         0x00000000   Number         0  _printf_hex_int_ptr.o ABSOLUTE
    ../clib/printf.c                         0x00000000   Number         0  _printf_hex_ptr.o ABSOLUTE
    ../clib/printf.c                         0x00000000   Number         0  _printf_hex_int_ll.o ABSOLUTE
    ../clib/printf.c                         0x00000000   Number         0  _printf_hex_int.o ABSOLUTE
    ../clib/printf.c                         0x00000000   Number         0  _printf_hex_ll.o ABSOLUTE
    ../clib/printf.c                         0x00000000   Number         0  _printf_dec.o ABSOLUTE
    ../clib/printf.c                         0x00000000   Number         0  _printf_str.o ABSOLUTE
    ../clib/printf.c                         0x00000000   Number         0  _printf_pad.o ABSOLUTE
    ../clib/printf.c                         0x00000000   Number         0  __printf.o ABSOLUTE
    ../clib/printf_percent.s                 0x00000000   Number         0  _printf_percent.o ABSOLUTE
    ../clib/printf_percent.s                 0x00000000   Number         0  _printf_c.o ABSOLUTE
    ../clib/printf_percent.s                 0x00000000   Number         0  _printf_d.o ABSOLUTE
    ../clib/printf_percent.s                 0x00000000   Number         0  _printf_u.o ABSOLUTE
    ../clib/printf_percent.s                 0x00000000   Number         0  _printf_e.o ABSOLUTE
    ../clib/printf_percent.s                 0x00000000   Number         0  _printf_f.o ABSOLUTE
    ../clib/printf_percent.s                 0x00000000   Number         0  _printf_x.o ABSOLUTE
    ../clib/printf_percent.s                 0x00000000   Number         0  _printf_s.o ABSOLUTE
    ../clib/printf_percent.s                 0x00000000   Number         0  _printf_percent_end.o ABSOLUTE
    ../clib/scanf.c                          0x00000000   Number         0  _chval.o ABSOLUTE
    ../clib/scanf.c                          0x00000000   Number         0  scanf_infnan.o ABSOLUTE
    ../clib/scanf.c                          0x00000000   Number         0  scanf_hexfp.o ABSOLUTE
    ../clib/scanf.c                          0x00000000   Number         0  strtod.o ABSOLUTE
    ../clib/scanf.c                          0x00000000   Number         0  strtol.o ABSOLUTE
    ../clib/scanf.c                          0x00000000   Number         0  scanf_fp.o ABSOLUTE
    ../clib/scanf.c                          0x00000000   Number         0  _strtoul.o ABSOLUTE
    ../clib/scanf.c                          0x00000000   Number         0  _sgetc.o ABSOLUTE
    ../clib/scanf.c                          0x00000000   Number         0  atoi.o ABSOLUTE
    ../clib/signal.c                         0x00000000   Number         0  defsig_other.o ABSOLUTE
    ../clib/signal.c                         0x00000000   Number         0  defsig_segv_inner.o ABSOLUTE
    ../clib/signal.c                         0x00000000   Number         0  defsig_stak_inner.o ABSOLUTE
    ../clib/signal.c                         0x00000000   Number         0  defsig_rtred_inner.o ABSOLUTE
    ../clib/signal.c                         0x00000000   Number         0  defsig_cppl_inner.o ABSOLUTE
    ../clib/signal.c                         0x00000000   Number         0  defsig_pvfn_inner.o ABSOLUTE
    ../clib/signal.c                         0x00000000   Number         0  defsig_abrt_inner.o ABSOLUTE
    ../clib/signal.c                         0x00000000   Number         0  defsig_exit.o ABSOLUTE
    ../clib/signal.c                         0x00000000   Number         0  defsig_general.o ABSOLUTE
    ../clib/signal.c                         0x00000000   Number         0  defsig_rtmem_formal.o ABSOLUTE
    ../clib/signal.c                         0x00000000   Number         0  __raise.o ABSOLUTE
    ../clib/signal.c                         0x00000000   Number         0  defsig_rtmem_outer.o ABSOLUTE
    ../clib/signal.c                         0x00000000   Number         0  defsig_fpe_inner.o ABSOLUTE
    ../clib/signal.c                         0x00000000   Number         0  defsig_fpe_outer.o ABSOLUTE
    ../clib/signal.c                         0x00000000   Number         0  defsig_rtmem_inner.o ABSOLUTE
    ../clib/signal.c                         0x00000000   Number         0  defsig_fpe_formal.o ABSOLUTE
    ../clib/signal.s                         0x00000000   Number         0  defsig.o ABSOLUTE
    ../clib/stdlib.c                         0x00000000   Number         0  exit.o ABSOLUTE
    ../clib/stdlib.c                         0x00000000   Number         0  lldiv.o ABSOLUTE
    ../clib/stdlib.c                         0x00000000   Number         0  qsortnoex.o ABSOLUTE
    ../clib/string.c                         0x00000000   Number         0  strchr.o ABSOLUTE
    ../clib/string.c                         0x00000000   Number         0  memcmp.o ABSOLUTE
    ../clib/string.c                         0x00000000   Number         0  strrchr.o ABSOLUTE
    ../clib/string.c                         0x00000000   Number         0  strcpy.o ABSOLUTE
    ../clib/string.c                         0x00000000   Number         0  strlen.o ABSOLUTE
    ../clib/string.c                         0x00000000   Number         0  strncmp.o ABSOLUTE
    ../clib/string.c                         0x00000000   Number         0  strcat.o ABSOLUTE
    ../clib/time.c                           0x00000000   Number         0  _monlen.o ABSOLUTE
    ../clib/time.c                           0x00000000   Number         0  mktime.o ABSOLUTE
    ../clib/unhosted.s                       0x00000000   Number         0  uwrite4.o ABSOLUTE
    ../clib/unhosted.s                       0x00000000   Number         0  uread4.o ABSOLUTE
    ../fplib/d2f.s                           0x00000000   Number         0  d2f.o ABSOLUTE
    ../fplib/daddsub.s                       0x00000000   Number         0  daddsub_clz.o ABSOLUTE
    ../fplib/dcheck1.s                       0x00000000   Number         0  dcheck1.o ABSOLUTE
    ../fplib/dcmpi.s                         0x00000000   Number         0  dcmpi.o ABSOLUTE
    ../fplib/ddiv.s                          0x00000000   Number         0  ddiv.o ABSOLUTE
    ../fplib/deqf.s                          0x00000000   Number         0  deqf.o ABSOLUTE
    ../fplib/dfix.s                          0x00000000   Number         0  dfix.o ABSOLUTE
    ../fplib/dflt.s                          0x00000000   Number         0  dflt_clz.o ABSOLUTE
    ../fplib/dleqf.s                         0x00000000   Number         0  dleqf.o ABSOLUTE
    ../fplib/dmul.s                          0x00000000   Number         0  dmul.o ABSOLUTE
    ../fplib/dnaninf.s                       0x00000000   Number         0  dnaninf.o ABSOLUTE
    ../fplib/dretinf.s                       0x00000000   Number         0  dretinf.o ABSOLUTE
    ../fplib/drleqf.s                        0x00000000   Number         0  drleqf.o ABSOLUTE
    ../fplib/f2d.s                           0x00000000   Number         0  f2d.o ABSOLUTE
    ../fplib/ffixu.s                         0x00000000   Number         0  ffixu.o ABSOLUTE
    ../fplib/fflt.s                          0x00000000   Number         0  fflt_clz.o ABSOLUTE
    ../fplib/fmul.s                          0x00000000   Number         0  fmul.o ABSOLUTE
    ../fplib/fnaninf.s                       0x00000000   Number         0  fnaninf.o ABSOLUTE
    ../fplib/fpconst.s                       0x00000000   Number         0  fpconst.o ABSOLUTE
    ../fplib/fpinit.s                        0x00000000   Number         0  fpinit.o ABSOLUTE
    ../fplib/fretinf.s                       0x00000000   Number         0  fretinf.o ABSOLUTE
    ../fplib/istatus.s                       0x00000000   Number         0  istatus.o ABSOLUTE
    ../fplib/printf1.s                       0x00000000   Number         0  printf1.o ABSOLUTE
    ../fplib/retnan.s                        0x00000000   Number         0  retnan.o ABSOLUTE
    ../fplib/scalbn.s                        0x00000000   Number         0  scalbn.o ABSOLUTE
    ../fplib/scanf1.s                        0x00000000   Number         0  scanf1.o ABSOLUTE
    ../fplib/scanf2.s                        0x00000000   Number         0  scanf2.o ABSOLUTE
    ../fplib/scanf2a.s                       0x00000000   Number         0  scanf2a.o ABSOLUTE
    ../fplib/scanf2b.s                       0x00000000   Number         0  scanf2b.o ABSOLUTE
    ../fplib/trapv.s                         0x00000000   Number         0  trapv.o ABSOLUTE
    ../fplib/usenofp.s                       0x00000000   Number         0  usenofp.o ABSOLUTE
    ../mathlib/dunder.c                      0x00000000   Number         0  dunder.o ABSOLUTE
    ../mathlib/floor.c                       0x00000000   Number         0  floor.o ABSOLUTE
    ../mathlib/fpclassify.c                  0x00000000   Number         0  fpclassify.o ABSOLUTE
    ../mathlib/frexp.c                       0x00000000   Number         0  frexp.o ABSOLUTE
    ../mathlib/ldexp.c                       0x00000000   Number         0  ldexp.o ABSOLUTE
    ../mathlib/ldexp.c                       0x00000000   Number         0  ldexp_x.o ABSOLUTE
    ../mathlib/narrow.c                      0x00000000   Number         0  narrow.o ABSOLUTE
    ../mathlib/qnan.c                        0x00000000   Number         0  qnan.o ABSOLUTE
    ../mathlib/strtod.c                      0x00000000   Number         0  strtod.o ABSOLUTE
    ..\..\common\src\BSP\Driver\Source\adc.c 0x00000000   Number         0  adc.o ABSOLUTE
    ..\..\common\src\BSP\Driver\Source\etimer.c 0x00000000   Number         0  etimer.o ABSOLUTE
    ..\..\common\src\BSP\Driver\Source\gpio.c 0x00000000   Number         0  gpio.o ABSOLUTE
    ..\..\common\src\BSP\Driver\Source\i2c.c 0x00000000   Number         0  i2c.o ABSOLUTE
    ..\..\common\src\BSP\Driver\Source\pwm.c 0x00000000   Number         0  pwm.o ABSOLUTE
    ..\..\common\src\BSP\Driver\Source\rtc.c 0x00000000   Number         0  rtc.o ABSOLUTE
    ..\..\common\src\BSP\Driver\Source\sdh.c 0x00000000   Number         0  sdh.o ABSOLUTE
    ..\..\common\src\BSP\Driver\Source\spi.c 0x00000000   Number         0  spi.o ABSOLUTE
    ..\..\common\src\BSP\Driver\Source\standalone.c 0x00000000   Number         0  standalone.o ABSOLUTE
    ..\..\common\src\BSP\Driver\Source\startup_NUC970.s 0x00000000   Number         0  startup_nuc970.o ABSOLUTE
    ..\..\common\src\BSP\Driver\Source\sys.c 0x00000000   Number         0  sys.o ABSOLUTE
    ..\..\common\src\BSP\Driver\Source\sys_nuc970.s 0x00000000   Number         0  sys_nuc970.o ABSOLUTE
    ..\..\common\src\BSP\Driver\Source\sys_timer.c 0x00000000   Number         0  sys_timer.o ABSOLUTE
    ..\..\common\src\BSP\Driver\Source\sys_uart.c 0x00000000   Number         0  sys_uart.o ABSOLUTE
    ..\..\common\src\BSP\Driver\Source\system_nuc970.c 0x00000000   Number         0  system_nuc970.o ABSOLUTE
    ..\..\common\src\BSP\Driver\Source\uart.c 0x00000000   Number         0  uart.o ABSOLUTE
    ..\..\common\src\BSP\ThirdParty\FATFS\src\ff.c 0x00000000   Number         0  ff.o ABSOLUTE
    ..\..\common\src\BSP\ThirdParty\yaffs2\mtdcore.c 0x00000000   Number         0  mtdcore.o ABSOLUTE
    ..\..\common\src\BSP\ThirdParty\yaffs2\mtdpart.c 0x00000000   Number         0  mtdpart.o ABSOLUTE
    ..\..\common\src\BSP\ThirdParty\yaffs2\nand.c 0x00000000   Number         0  nand.o ABSOLUTE
    ..\..\common\src\BSP\ThirdParty\yaffs2\nand_base.c 0x00000000   Number         0  nand_base.o ABSOLUTE
    ..\..\common\src\BSP\ThirdParty\yaffs2\nand_bbt.c 0x00000000   Number         0  nand_bbt.o ABSOLUTE
    ..\..\common\src\BSP\ThirdParty\yaffs2\nand_ids.c 0x00000000   Number         0  nand_ids.o ABSOLUTE
    ..\..\common\src\BSP\ThirdParty\yaffs2\nand_util.c 0x00000000   Number         0  nand_util.o ABSOLUTE
    ..\..\common\src\BSP\ThirdParty\yaffs2\platform\fmi_nand.c 0x00000000   Number         0  fmi_nand.o ABSOLUTE
    ..\..\common\src\BSP\ThirdParty\yaffs2\yaffs_allocator.c 0x00000000   Number         0  yaffs_allocator.o ABSOLUTE
    ..\..\common\src\BSP\ThirdParty\yaffs2\yaffs_attribs.c 0x00000000   Number         0  yaffs_attribs.o ABSOLUTE
    ..\..\common\src\BSP\ThirdParty\yaffs2\yaffs_bitmap.c 0x00000000   Number         0  yaffs_bitmap.o ABSOLUTE
    ..\..\common\src\BSP\ThirdParty\yaffs2\yaffs_checkptrw.c 0x00000000   Number         0  yaffs_checkptrw.o ABSOLUTE
    ..\..\common\src\BSP\ThirdParty\yaffs2\yaffs_ecc.c 0x00000000   Number         0  yaffs_ecc.o ABSOLUTE
    ..\..\common\src\BSP\ThirdParty\yaffs2\yaffs_error.c 0x00000000   Number         0  yaffs_error.o ABSOLUTE
    ..\..\common\src\BSP\ThirdParty\yaffs2\yaffs_guts.c 0x00000000   Number         0  yaffs_guts.o ABSOLUTE
    ..\..\common\src\BSP\ThirdParty\yaffs2\yaffs_malloc.c 0x00000000   Number         0  yaffs_malloc.o ABSOLUTE
    ..\..\common\src\BSP\ThirdParty\yaffs2\yaffs_mtdif.c 0x00000000   Number         0  yaffs_mtdif.o ABSOLUTE
    ..\..\common\src\BSP\ThirdParty\yaffs2\yaffs_mtdif2.c 0x00000000   Number         0  yaffs_mtdif2.o ABSOLUTE
    ..\..\common\src\BSP\ThirdParty\yaffs2\yaffs_nameval.c 0x00000000   Number         0  yaffs_nameval.o ABSOLUTE
    ..\..\common\src\BSP\ThirdParty\yaffs2\yaffs_nand.c 0x00000000   Number         0  yaffs_nand.o ABSOLUTE
    ..\..\common\src\BSP\ThirdParty\yaffs2\yaffs_packedtags1.c 0x00000000   Number         0  yaffs_packedtags1.o ABSOLUTE
    ..\..\common\src\BSP\ThirdParty\yaffs2\yaffs_packedtags2.c 0x00000000   Number         0  yaffs_packedtags2.o ABSOLUTE
    ..\..\common\src\BSP\ThirdParty\yaffs2\yaffs_qsort.c 0x00000000   Number         0  yaffs_qsort.o ABSOLUTE
    ..\..\common\src\BSP\ThirdParty\yaffs2\yaffs_summary.c 0x00000000   Number         0  yaffs_summary.o ABSOLUTE
    ..\..\common\src\BSP\ThirdParty\yaffs2\yaffs_tagscompat.c 0x00000000   Number         0  yaffs_tagscompat.o ABSOLUTE
    ..\..\common\src\BSP\ThirdParty\yaffs2\yaffs_verify.c 0x00000000   Number         0  yaffs_verify.o ABSOLUTE
    ..\..\common\src\BSP\ThirdParty\yaffs2\yaffs_yaffs1.c 0x00000000   Number         0  yaffs_yaffs1.o ABSOLUTE
    ..\..\common\src\BSP\ThirdParty\yaffs2\yaffs_yaffs2.c 0x00000000   Number         0  yaffs_yaffs2.o ABSOLUTE
    ..\..\common\src\BSP\ThirdParty\yaffs2\yaffsfs.c 0x00000000   Number         0  yaffsfs.o ABSOLUTE
    dc.s                                     0x00000000   Number         0  dc.o ABSOLUTE
    src\FreeRTOS\Source\list.c               0x00000000   Number         0  list.o ABSOLUTE
    src\FreeRTOS\Source\portable\MemMang\heap_4.c 0x00000000   Number         0  heap_4.o ABSOLUTE
    src\FreeRTOS\Source\portable\RVDS\ARM926EJ-S\port.c 0x00000000   Number         0  port.o ABSOLUTE
    src\FreeRTOS\Source\portable\RVDS\ARM926EJ-S\portasm.s 0x00000000   Number         0  portasm.o ABSOLUTE
    src\FreeRTOS\Source\queue.c              0x00000000   Number         0  queue.o ABSOLUTE
    src\FreeRTOS\Source\tasks.c              0x00000000   Number         0  tasks.o ABSOLUTE
    src\SysHal\cardreader.c                  0x00000000   Number         0  cardreader.o ABSOLUTE
    src\SysHal\epddrv.c                      0x00000000   Number         0  epddrv.o ABSOLUTE
    src\SysHal\fatfs\ccsbcs.c                0x00000000   Number         0  ccsbcs.o ABSOLUTE
    src\SysHal\fatfs\diskio.c                0x00000000   Number         0  diskio.o ABSOLUTE
    src\SysHal\fatfslib.c                    0x00000000   Number         0  fatfslib.o ABSOLUTE
    src\SysHal\guidrv.c                      0x00000000   Number         0  guidrv.o ABSOLUTE
    src\SysHal\halinterface.c                0x00000000   Number         0  halinterface.o ABSOLUTE
    src\SysHal\json\cJSON.c                  0x00000000   Number         0  cjson.o ABSOLUTE
    src\SysHal\json\cJSON_Utils.c            0x00000000   Number         0  cjson_utils.o ABSOLUTE
    src\SysHal\jsoncmdlib.c                  0x00000000   Number         0  jsoncmdlib.o ABSOLUTE
    src\SysHal\keydrv.c                      0x00000000   Number         0  keydrv.o ABSOLUTE
    src\SysHal\pct08cmdlib.c                 0x00000000   Number         0  pct08cmdlib.o ABSOLUTE
    src\SysHal\pct08drv.c                    0x00000000   Number         0  pct08drv.o ABSOLUTE
    src\SysHal\photoagent.c                  0x00000000   Number         0  photoagent.o ABSOLUTE
    src\SysHal\powerdrv.c                    0x00000000   Number         0  powerdrv.o ABSOLUTE
    src\SysHal\spacedrv.c                    0x00000000   Number         0  spacedrv.o ABSOLUTE
    src\SysHal\timelib.c                     0x00000000   Number         0  timelib.o ABSOLUTE
    src\SysHal\timerdrv.c                    0x00000000   Number         0  timerdrv.o ABSOLUTE
    src\SysHal\ts2000drv.c                   0x00000000   Number         0  ts2000drv.o ABSOLUTE
    src\UserDrv\batterydrv.c                 0x00000000   Number         0  batterydrv.o ABSOLUTE
    src\UserDrv\buzzerdrv.c                  0x00000000   Number         0  buzzerdrv.o ABSOLUTE
    src\UserDrv\dipdrv.c                     0x00000000   Number         0  dipdrv.o ABSOLUTE
    src\UserDrv\flashdrvex.c                 0x00000000   Number         0  flashdrvex.o ABSOLUTE
    src\UserDrv\i2c1drv.c                    0x00000000   Number         0  i2c1drv.o ABSOLUTE
    src\UserDrv\interface.c                  0x00000000   Number         0  interface.o ABSOLUTE
    src\UserDrv\rs232CommDrv.c               0x00000000   Number         0  rs232commdrv.o ABSOLUTE
    src\UserDrv\sddrv.c                      0x00000000   Number         0  sddrv.o ABSOLUTE
    src\UserDrv\spi0drv.c                    0x00000000   Number         0  spi0drv.o ABSOLUTE
    src\UserDrv\spi1drv.c                    0x00000000   Number         0  spi1drv.o ABSOLUTE
    src\UserDrv\sr04tdrv.c                   0x00000000   Number         0  sr04tdrv.o ABSOLUTE
    src\UserDrv\uart10drv.c                  0x00000000   Number         0  uart10drv.o ABSOLUTE
    src\UserDrv\uart2drv.c                   0x00000000   Number         0  uart2drv.o ABSOLUTE
    src\UserDrv\uart8drv.c                   0x00000000   Number         0  uart8drv.o ABSOLUTE
    src\UserDrv\userdrv.c                    0x00000000   Number         0  userdrv.o ABSOLUTE
    src\User\guideposit.c                    0x00000000   Number         0  guideposit.o ABSOLUTE
    src\User\guidepositfail.c                0x00000000   Number         0  guidepositfail.o ABSOLUTE
    src\User\guidepositok.c                  0x00000000   Number         0  guidepositok.o ABSOLUTE
    src\User\guimanager.c                    0x00000000   Number         0  guimanager.o ABSOLUTE
    src\User\guireaderinit.c                 0x00000000   Number         0  guireaderinit.o ABSOLUTE
    src\User\guireplacebp.c                  0x00000000   Number         0  guireplacebp.o ABSOLUTE
    src\User\guiselspace.c                   0x00000000   Number         0  guiselspace.o ABSOLUTE
    src\User\guiseltime.c                    0x00000000   Number         0  guiseltime.o ABSOLUTE
    src\User\guistandby.c                    0x00000000   Number         0  guistandby.o ABSOLUTE
    src\User\guitester.c                     0x00000000   Number         0  guitester.o ABSOLUTE
    src\User\guitesterkeypad.c               0x00000000   Number         0  guitesterkeypad.o ABSOLUTE
    src\User\meterdata.c                     0x00000000   Number         0  meterdata.o ABSOLUTE
    src\User\user.c                          0x00000000   Number         0  user.o ABSOLUTE
    src\\osmisc.c                            0x00000000   Number         0  osmisc.o ABSOLUTE
    src\main.c                               0x00000000   Number         0  main.o ABSOLUTE
    src\osmisc.c                             0x00000000   Number         0  osmisc.o ABSOLUTE
    src\syshal\dataprocesslib.c              0x00000000   Number         0  dataprocesslib.o ABSOLUTE
    src\syshal\fileagent.c                   0x00000000   Number         0  fileagent.o ABSOLUTE
    src\syshal\ledcmdlib.c                   0x00000000   Number         0  ledcmdlib.o ABSOLUTE
    src\syshal\leddrv.c                      0x00000000   Number         0  leddrv.o ABSOLUTE
    src\syshal\loglib.c                      0x00000000   Number         0  loglib.o ABSOLUTE
    src\syshal\modemagent.c                  0x00000000   Number         0  modemagent.o ABSOLUTE
    src\syshal\modemlib\atcmdparser.c        0x00000000   Number         0  atcmdparser.o ABSOLUTE
    src\syshal\modemlib\quentelmodemlib.c    0x00000000   Number         0  quentelmodemlib.o ABSOLUTE
    src\syshal\tarifflib.c                   0x00000000   Number         0  tarifflib.o ABSOLUTE
    src\syshal\yaffs2drv.c                   0x00000000   Number         0  yaffs2drv.o ABSOLUTE
    src\user\guifiledownload.c               0x00000000   Number         0  guifiledownload.o ABSOLUTE
    src\user\guifree.c                       0x00000000   Number         0  guifree.o ABSOLUTE
    src\user\guioff.c                        0x00000000   Number         0  guioff.o ABSOLUTE
    src\user\paralib.c                       0x00000000   Number         0  paralib.o ABSOLUTE
    src\userdrv\nt066edrv.c                  0x00000000   Number         0  nt066edrv.o ABSOLUTE
    src\userdrv\uart1drv.c                   0x00000000   Number         0  uart1drv.o ABSOLUTE
    src\userdrv\uart3drv.c                   0x00000000   Number         0  uart3drv.o ABSOLUTE
    src\userdrv\uart4drv.c                   0x00000000   Number         0  uart4drv.o ABSOLUTE
    src\userdrv\uart7drv.c                   0x00000000   Number         0  uart7drv.o ABSOLUTE
    Undefined_Handler                        0x00000040   ARM Code       0  startup_nuc970.o(NUC_INIT)
    Prefetch_Handler                         0x00000048   ARM Code       0  startup_nuc970.o(NUC_INIT)
    Abort_Handler                            0x0000004c   ARM Code       0  startup_nuc970.o(NUC_INIT)
    FIQ_Handler                              0x00000050   ARM Code       0  startup_nuc970.o(NUC_INIT)
    !!!main                                  0x000000ac   Section        8  __main.o(!!!main)
    !!!scatter                               0x000000b4   Section       60  __scatter.o(!!!scatter)
    !!dczerorl2                              0x000000f0   Section       92  __dczerorl2.o(!!dczerorl2)
    _decompress_loop                         0x000000fb   Thumb Code     0  __dczerorl2.o(!!dczerorl2)
    _decompress_zerolen                      0x00000109   Thumb Code     0  __dczerorl2.o(!!dczerorl2)
    _decompress_litn                         0x00000111   Thumb Code     0  __dczerorl2.o(!!dczerorl2)
    _decompress_lit                          0x00000115   Thumb Code     0  __dczerorl2.o(!!dczerorl2)
    _decompress_copyorzero                   0x00000121   Thumb Code     0  __dczerorl2.o(!!dczerorl2)
    _decompress_zero                         0x00000129   Thumb Code     0  __dczerorl2.o(!!dczerorl2)
    _decompress_copyn                        0x00000133   Thumb Code     0  __dczerorl2.o(!!dczerorl2)
    _decompress_copy                         0x0000013b   Thumb Code     0  __dczerorl2.o(!!dczerorl2)
    _decompress_end                          0x00000147   Thumb Code     0  __dczerorl2.o(!!dczerorl2)
    !!handler_copy                           0x0000014c   Section       40  __scatter_copy.o(!!handler_copy)
    !!handler_zi                             0x00000174   Section       44  __scatter_zi.o(!!handler_zi)
    .ARM.Collect$$_printf_percent$$00000000  0x000001a0   Section        0  _printf_percent.o(.ARM.Collect$$_printf_percent$$00000000)
    .ARM.Collect$$_printf_percent$$00000003  0x000001a0   Section        8  _printf_f.o(.ARM.Collect$$_printf_percent$$00000003)
    .ARM.Collect$$_printf_percent$$00000004  0x000001a8   Section        8  _printf_e.o(.ARM.Collect$$_printf_percent$$00000004)
    .ARM.Collect$$_printf_percent$$00000009  0x000001b0   Section        8  _printf_d.o(.ARM.Collect$$_printf_percent$$00000009)
    .ARM.Collect$$_printf_percent$$0000000A  0x000001b8   Section        8  _printf_u.o(.ARM.Collect$$_printf_percent$$0000000A)
    .ARM.Collect$$_printf_percent$$0000000C  0x000001c0   Section        8  _printf_x.o(.ARM.Collect$$_printf_percent$$0000000C)
    .ARM.Collect$$_printf_percent$$00000013  0x000001c8   Section        8  _printf_c.o(.ARM.Collect$$_printf_percent$$00000013)
    .ARM.Collect$$_printf_percent$$00000014  0x000001d0   Section        8  _printf_s.o(.ARM.Collect$$_printf_percent$$00000014)
    .ARM.Collect$$_printf_percent$$00000017  0x000001d8   Section        8  _printf_percent_end.o(.ARM.Collect$$_printf_percent$$00000017)
    .ARM.Collect$$libinit$$00000000          0x000001e0   Section        2  libinit.o(.ARM.Collect$$libinit$$00000000)
    .ARM.Collect$$libinit$$00000002          0x000001e2   Section        0  libinit2.o(.ARM.Collect$$libinit$$00000002)
    .ARM.Collect$$libinit$$00000008          0x000001e2   Section        0  libinit2.o(.ARM.Collect$$libinit$$00000008)
    .ARM.Collect$$libinit$$0000000A          0x000001e2   Section        0  libinit2.o(.ARM.Collect$$libinit$$0000000A)
    .ARM.Collect$$libinit$$0000000C          0x000001e2   Section        0  libinit2.o(.ARM.Collect$$libinit$$0000000C)
    .ARM.Collect$$libinit$$0000000D          0x000001e2   Section        6  libinit2.o(.ARM.Collect$$libinit$$0000000D)
    .ARM.Collect$$libinit$$0000000F          0x000001e8   Section        0  libinit2.o(.ARM.Collect$$libinit$$0000000F)
    .ARM.Collect$$libinit$$00000010          0x000001e8   Section       12  libinit2.o(.ARM.Collect$$libinit$$00000010)
    .ARM.Collect$$libinit$$00000011          0x000001f4   Section        0  libinit2.o(.ARM.Collect$$libinit$$00000011)
    .ARM.Collect$$libinit$$00000013          0x000001f4   Section        0  libinit2.o(.ARM.Collect$$libinit$$00000013)
    .ARM.Collect$$libinit$$00000014          0x000001f4   Section       10  libinit2.o(.ARM.Collect$$libinit$$00000014)
    .ARM.Collect$$libinit$$00000015          0x000001fe   Section        0  libinit2.o(.ARM.Collect$$libinit$$00000015)
    .ARM.Collect$$libinit$$00000017          0x000001fe   Section        0  libinit2.o(.ARM.Collect$$libinit$$00000017)
    .ARM.Collect$$libinit$$00000019          0x000001fe   Section        0  libinit2.o(.ARM.Collect$$libinit$$00000019)
    .ARM.Collect$$libinit$$0000001B          0x000001fe   Section        0  libinit2.o(.ARM.Collect$$libinit$$0000001B)
    .ARM.Collect$$libinit$$0000001D          0x000001fe   Section        0  libinit2.o(.ARM.Collect$$libinit$$0000001D)
    .ARM.Collect$$libinit$$0000001F          0x000001fe   Section        0  libinit2.o(.ARM.Collect$$libinit$$0000001F)
    .ARM.Collect$$libinit$$00000021          0x000001fe   Section        0  libinit2.o(.ARM.Collect$$libinit$$00000021)
    .ARM.Collect$$libinit$$00000023          0x000001fe   Section        0  libinit2.o(.ARM.Collect$$libinit$$00000023)
    .ARM.Collect$$libinit$$0000002A          0x000001fe   Section        0  libinit2.o(.ARM.Collect$$libinit$$0000002A)
    .ARM.Collect$$libinit$$0000002C          0x000001fe   Section        0  libinit2.o(.ARM.Collect$$libinit$$0000002C)
    .ARM.Collect$$libinit$$0000002E          0x000001fe   Section        0  libinit2.o(.ARM.Collect$$libinit$$0000002E)
    .ARM.Collect$$libinit$$00000030          0x000001fe   Section        0  libinit2.o(.ARM.Collect$$libinit$$00000030)
    .ARM.Collect$$libinit$$00000031          0x000001fe   Section        2  libinit2.o(.ARM.Collect$$libinit$$00000031)
    .ARM.Collect$$libshutdown$$00000000      0x00000200   Section        2  libshutdown.o(.ARM.Collect$$libshutdown$$00000000)
    .ARM.Collect$$libshutdown$$00000003      0x00000202   Section        0  libshutdown2.o(.ARM.Collect$$libshutdown$$00000003)
    .ARM.Collect$$libshutdown$$00000006      0x00000202   Section        0  libshutdown2.o(.ARM.Collect$$libshutdown$$00000006)
    .ARM.Collect$$libshutdown$$00000009      0x00000202   Section        0  libshutdown2.o(.ARM.Collect$$libshutdown$$00000009)
    .ARM.Collect$$libshutdown$$0000000B      0x00000202   Section        0  libshutdown2.o(.ARM.Collect$$libshutdown$$0000000B)
    .ARM.Collect$$libshutdown$$0000000E      0x00000202   Section        0  libshutdown2.o(.ARM.Collect$$libshutdown$$0000000E)
    .ARM.Collect$$libshutdown$$0000000F      0x00000202   Section        2  libshutdown2.o(.ARM.Collect$$libshutdown$$0000000F)
    .ARM.Collect$$rtentry$$00000000          0x00000204   Section        0  rtentry.o(.ARM.Collect$$rtentry$$00000000)
    .ARM.Collect$$rtentry$$00000002          0x00000204   Section        0  rtentry2.o(.ARM.Collect$$rtentry$$00000002)
    .ARM.Collect$$rtentry$$00000004          0x00000204   Section        8  rtentry4.o(.ARM.Collect$$rtentry$$00000004)
    .ARM.Collect$$rtentry$$00000009          0x0000020c   Section        0  rtentry2.o(.ARM.Collect$$rtentry$$00000009)
    .ARM.Collect$$rtentry$$0000000A          0x0000020c   Section        4  rtentry2.o(.ARM.Collect$$rtentry$$0000000A)
    .ARM.Collect$$rtentry$$0000000C          0x00000210   Section        0  rtentry2.o(.ARM.Collect$$rtentry$$0000000C)
    .ARM.Collect$$rtentry$$0000000D          0x00000210   Section       40  rtentry2.o(.ARM.Collect$$rtentry$$0000000D)
    .ARM.Collect$$rtexit$$00000000           0x00000238   Section        4  rtexit.o(.ARM.Collect$$rtexit$$00000000)
    .ARM.Collect$$rtexit$$00000002           0x0000023c   Section        0  rtexit2.o(.ARM.Collect$$rtexit$$00000002)
    .ARM.Collect$$rtexit$$00000003           0x0000023c   Section        4  rtexit2.o(.ARM.Collect$$rtexit$$00000003)
    .ARM.Collect$$rtexit$$00000004           0x00000240   Section        8  rtexit2.o(.ARM.Collect$$rtexit$$00000004)
    .emb_text                                0x00000248   Section        8  osmisc.o(.emb_text)
    .text                                    0x00000250   Section        0  main.o(.text)
    printSysInfo                             0x00000250   ARM Code    1180  main.o(.text)
    debugProcess                             0x000006ec   ARM Code     708  main.o(.text)
    deviceHwInit                             0x000009b0   ARM Code      20  main.o(.text)
    driverInit                               0x000009c4   ARM Code     188  main.o(.text)
    vDrvInitTask                             0x00000a80   ARM Code    1584  main.o(.text)
    vDebugTask                               0x000010b0   ARM Code      28  main.o(.text)
    .text                                    0x000011d8   Section        0  sys.o(.text)
    .text                                    0x00001b0c   Section        0  sys_timer.o(.text)
    .text                                    0x00002878   Section        0  sys_uart.o(.text)
    sysPutRepChar                            0x000028e8   ARM Code      40  sys_uart.o(.text)
    sysPutStringReverse                      0x00002910   ARM Code      40  sys_uart.o(.text)
    sysPutNumber                             0x00002938   ARM Code     344  sys_uart.o(.text)
    FormatItem                               0x00002a90   ARM Code     576  sys_uart.o(.text)
    .text                                    0x00002e0c   Section        0  system_nuc970.o(.text)
    .text                                    0x0000373c   Section        0  uart.o(.text)
    _uartRxBufGetNextOne                     0x0000373c   ARM Code      40  uart.o(.text)
    _uartReceiveChars                        0x00003764   ARM Code     744  uart.o(.text)
    _uartDisableInterrupt                    0x00003b00   ARM Code      64  uart.o(.text)
    _uartTxBufGetNextOne                     0x00003b40   ARM Code      40  uart.o(.text)
    _uartTransmitChars                       0x00003b68   ARM Code     148  uart.o(.text)
    _uartEnableInterrupt                     0x00003c6c   ARM Code      36  uart.o(.text)
    _uartCheckModemStatus                    0x00003c90   ARM Code     148  uart.o(.text)
    _uartSetBaudRate                         0x00004708   ARM Code      92  uart.o(.text)
    _uartInstallISR                          0x00004764   ARM Code     444  uart.o(.text)
    _uartBUFSpaceAlloc                       0x00004920   ARM Code     236  uart.o(.text)
    _uartCheckTxBufSpace                     0x00004a0c   ARM Code     144  uart.o(.text)
    _uartReadRxBuf                           0x00004a9c   ARM Code     208  uart.o(.text)
    _uartWriteTxBuf                          0x00004b6c   ARM Code     180  uart.o(.text)
    _uartConfigureUART                       0x00004c20   ARM Code     728  uart.o(.text)
    _uartPerformIrDA                         0x00004ef8   ARM Code     168  uart.o(.text)
    _uartGetRegisterValue                    0x00004fa0   ARM Code     548  uart.o(.text)
    .text                                    0x00005e50   Section        0  standalone.o(.text)
    .text                                    0x00005e90   Section        0  gpio.o(.text)
    .text                                    0x00006a5c   Section        0  rtc.o(.text)
    RTC_ISR                                  0x000072cc   ARM Code     328  rtc.o(.text)
    .text                                    0x00008444   Section        0  spi.o(.text)
    spi0ISR                                  0x00008444   ARM Code      28  spi.o(.text)
    spi1ISR                                  0x00008460   ARM Code      28  spi.o(.text)
    spiSetSpeed                              0x0000847c   ARM Code      64  spi.o(.text)
    .text                                    0x00008aa4   Section        0  i2c.o(.text)
    _i2cSetSpeed                             0x00008aa4   ARM Code      76  i2c.o(.text)
    _i2cCommand                              0x00008af0   ARM Code      28  i2c.o(.text)
    _i2cCalcAddr                             0x00008b0c   ARM Code     104  i2c.o(.text)
    _i2cReset                                0x00008b74   ARM Code      28  i2c.o(.text)
    i2c0ISR                                  0x00008b90   ARM Code     520  i2c.o(.text)
    i2c1ISR                                  0x00008d98   ARM Code     568  i2c.o(.text)
    .text                                    0x000096bc   Section        0  sdh.o(.text)
    .text                                    0x0000b258   Section        0  adc.o(.text)
    .text                                    0x0000c240   Section        0  etimer.o(.text)
    ETIMER_GetModuleClock                    0x0000c240   ARM Code     100  etimer.o(.text)
    .text                                    0x0000c808   Section        0  guistandby.o(.text)
    updateBG                                 0x0000c808   ARM Code     324  guistandby.o(.text)
    updateData                               0x0000c94c   ARM Code      56  guistandby.o(.text)
    .text                                    0x0000cfdc   Section        0  guimanager.o(.text)
    redrawscreen                             0x0000d034   ARM Code      12  guimanager.o(.text)
    .text                                    0x0000d3b8   Section        0  meterdata.o(.text)
    MeterDataPreOffCallback                  0x0000d3b8   ARM Code      12  meterdata.o(.text)
    MeterDataOffCallback                     0x0000d3c4   ARM Code      48  meterdata.o(.text)
    MeterDataOnCallback                      0x0000d3f4   ARM Code      56  meterdata.o(.text)
    MeterDataCheckStatus                     0x0000d42c   ARM Code      16  meterdata.o(.text)
    getSpaceStatus                           0x0000d43c   ARM Code      92  meterdata.o(.text)
    updateTariffDataRoutine                  0x0000d498   ARM Code      20  meterdata.o(.text)
    updateTariffDataRoutineCondition         0x0000d4ac   ARM Code      88  meterdata.o(.text)
    sendLedHeartbeatRoutine                  0x0000d504   ARM Code      20  meterdata.o(.text)
    takePhotoRoutine                         0x0000d518   ARM Code      24  meterdata.o(.text)
    takeTransactionRoutine                   0x0000d5ac   ARM Code     528  meterdata.o(.text)
    modemAgentTransmitRoutine                0x0000d7bc   ARM Code      84  meterdata.o(.text)
    routineCounterTimer                      0x0000d810   ARM Code     300  meterdata.o(.text)
    vMeterDataProcessTask                    0x0000dc20   ARM Code     456  meterdata.o(.text)
    getEpmID                                 0x0000dde8   ARM Code     208  meterdata.o(.text)
    swInit                                   0x0000deb8   ARM Code     364  meterdata.o(.text)
    applyData                                0x0000e024   ARM Code       8  meterdata.o(.text)
    .text                                    0x0000e63c   Section        0  guiselspace.o(.text)
    updateBG                                 0x0000e63c   ARM Code     312  guiselspace.o(.text)
    updateData                               0x0000e774   ARM Code     168  guiselspace.o(.text)
    .text                                    0x0000ebe0   Section        0  guiseltime.o(.text)
    updateBG                                 0x0000ebe0   ARM Code     112  guiseltime.o(.text)
    updateData                               0x0000ec50   ARM Code     116  guiseltime.o(.text)
    .text                                    0x0000f134   Section        0  guireaderinit.o(.text)
    updateBG                                 0x0000f134   ARM Code      68  guireaderinit.o(.text)
    checkReader                              0x0000f178   ARM Code      68  guireaderinit.o(.text)
    .text                                    0x0000f4c4   Section        0  guideposit.o(.text)
    updateBG                                 0x0000f4c4   ARM Code      68  guideposit.o(.text)
    setDepositResultStatusCallback           0x0000f508   ARM Code     612  guideposit.o(.text)
    readerProcess                            0x0000f76c   ARM Code      68  guideposit.o(.text)
    .text                                    0x0000fa84   Section        0  guidepositfail.o(.text)
    updateBG                                 0x0000fa84   ARM Code      68  guidepositfail.o(.text)
    .text                                    0x0000fd94   Section        0  guidepositok.o(.text)
    updateBG                                 0x0000fd94   ARM Code      84  guidepositok.o(.text)
    .text                                    0x000100a4   Section        0  guireplacebp.o(.text)
    batteryStatus2EpdId                      0x000100a4   ARM Code     220  guireplacebp.o(.text)
    updateContain                            0x00010180   ARM Code     108  guireplacebp.o(.text)
    updateBG                                 0x000101ec   ARM Code      72  guireplacebp.o(.text)
    updateData                               0x00010234   ARM Code      40  guireplacebp.o(.text)
    .text                                    0x000105c4   Section        0  guitester.o(.text)
    updateContain                            0x000105c4   ARM Code       4  guitester.o(.text)
    updateBG                                 0x000105c8   ARM Code      72  guitester.o(.text)
    updateData                               0x00010610   ARM Code      40  guitester.o(.text)
    .text                                    0x000109a4   Section        0  guitesterkeypad.o(.text)
    updateContain                            0x000109a4   ARM Code       4  guitesterkeypad.o(.text)
    updateBG                                 0x000109a8   ARM Code      72  guitesterkeypad.o(.text)
    updateData                               0x000109f0   ARM Code      40  guitesterkeypad.o(.text)
    .text                                    0x00010d90   Section        0  paralib.o(.text)
    getStorageChecksum                       0x00010d90   ARM Code      68  paralib.o(.text)
    resetStorageValue                        0x00010e98   ARM Code      88  paralib.o(.text)
    checkStorageValue                        0x00010ef0   ARM Code     436  paralib.o(.text)
    loadStorageValue                         0x000110a4   ARM Code     160  paralib.o(.text)
    saveStorageValue                         0x00011144   ARM Code     176  paralib.o(.text)
    resetJsonPara                            0x000111f4   ARM Code      44  paralib.o(.text)
    loadJsonParaFile                         0x00011220   ARM Code     916  paralib.o(.text)
    paraCallback                             0x000115b4   ARM Code     316  paralib.o(.text)
    loadParaFileName                         0x000116f0   ARM Code      84  paralib.o(.text)
    applyPara                                0x00011744   ARM Code      44  paralib.o(.text)
    swInit                                   0x000117b8   ARM Code     600  paralib.o(.text)
    .text                                    0x00011b64   Section        0  guifiledownload.o(.text)
    updateBG                                 0x00011b64   ARM Code      68  guifiledownload.o(.text)
    updateData                               0x00011ba8   ARM Code      80  guifiledownload.o(.text)
    .text                                    0x00011e64   Section        0  guifree.o(.text)
    updateBG                                 0x00011e64   ARM Code      68  guifree.o(.text)
    updateData                               0x00011ea8   ARM Code      16  guifree.o(.text)
    .text                                    0x00012114   Section        0  guioff.o(.text)
    updateBG                                 0x00012114   ARM Code      68  guioff.o(.text)
    updateData                               0x00012158   ARM Code      16  guioff.o(.text)
    .text                                    0x000123c4   Section        0  halinterface.o(.text)
    .text                                    0x00012410   Section        0  guidrv.o(.text)
    guiDrvPreOffCallback                     0x00012410   ARM Code      64  guidrv.o(.text)
    guiDrvOffCallback                        0x00012450   ARM Code      64  guidrv.o(.text)
    guiDrvOnCallback                         0x00012490   ARM Code      64  guidrv.o(.text)
    guiDrvCheckStatus                        0x000124d0   ARM Code      64  guidrv.o(.text)
    GUITimerCallbackFunc                     0x00012510   ARM Code      52  guidrv.o(.text)
    GUIKeyCallbackFunc                       0x00012544   ARM Code      60  guidrv.o(.text)
    .text                                    0x0001287c   Section        0  keydrv.o(.text)
    KeyCallbackFunc                          0x0001287c   ARM Code     240  keydrv.o(.text)
    .text                                    0x00012a84   Section        0  powerdrv.o(.text)
    backupReg                                0x00012a84   ARM Code       4  powerdrv.o(.text)
    restoreReg                               0x00012a88   ARM Code       4  powerdrv.o(.text)
    PowerDrvPreOffCallback                   0x00012a9c   ARM Code      12  powerdrv.o(.text)
    PowerDrvOffCallback                      0x00012aa8   ARM Code      12  powerdrv.o(.text)
    PowerDrvOnCallback                       0x00012ab4   ARM Code      12  powerdrv.o(.text)
    PowerDrvCheckStatus                      0x00012ac0   ARM Code      72  powerdrv.o(.text)
    processPreOffCallback                    0x00012b08   ARM Code      76  powerdrv.o(.text)
    processOffCallback                       0x00012b54   ARM Code      76  powerdrv.o(.text)
    processOnCallback                        0x00012ba0   ARM Code      80  powerdrv.o(.text)
    processStatusCallback                    0x00012bf0   ARM Code     144  powerdrv.o(.text)
    powerSendStatusData                      0x00012c80   ARM Code     156  powerdrv.o(.text)
    vPowerDrvTask                            0x0001311c   ARM Code     448  powerdrv.o(.text)
    .text                                    0x00013570   Section        0  timerdrv.o(.text)
    vTimerDrvTask                            0x00013570   ARM Code     176  timerdrv.o(.text)
    .text                                    0x000137d8   Section        0  cardreader.o(.text)
    vCardReaderRxTask                        0x000137d8   ARM Code     104  cardreader.o(.text)
    swInit                                   0x00013840   ARM Code      72  cardreader.o(.text)
    .text                                    0x00013bc0   Section        0  epddrv.o(.text)
    epdDrvPreOffCallback                     0x00013bc0   ARM Code      12  epddrv.o(.text)
    EPDSetPower                              0x00013bcc   ARM Code      92  epddrv.o(.text)
    EPDReset                                 0x00013c28   ARM Code      52  epddrv.o(.text)
    setTotalPower                            0x00013c5c   ARM Code      76  epddrv.o(.text)
    reinitEpd                                0x00013ca8   ARM Code      40  epddrv.o(.text)
    LCDWaitForReady                          0x00013cd0   ARM Code     152  epddrv.o(.text)
    WriteCmdCode                             0x00013d68   ARM Code     312  epddrv.o(.text)
    epdDrvOffCallback                        0x00013ea0   ARM Code      92  epddrv.o(.text)
    epdDrvOnCallback                         0x00013efc   ARM Code      92  epddrv.o(.text)
    epdDrvCheckStatus                        0x00013f58   ARM Code      12  epddrv.o(.text)
    hwInit                                   0x00013fa0   ARM Code     204  epddrv.o(.text)
    vLedBackLightTask                        0x0001406c   ARM Code     112  epddrv.o(.text)
    swInit                                   0x000140dc   ARM Code      96  epddrv.o(.text)
    WriteData                                0x0001413c   ARM Code     300  epddrv.o(.text)
    ReadData                                 0x00014268   ARM Code     388  epddrv.o(.text)
    GetIT8951SystemInfo                      0x000143ec   ARM Code     144  epddrv.o(.text)
    LoadImages                               0x0001447c   ARM Code      96  epddrv.o(.text)
    DisplayArea                              0x000144dc   ARM Code     248  epddrv.o(.text)
    pow10Ex                                  0x000145d4   ARM Code     160  epddrv.o(.text)
    ShowTime                                 0x00014674   ARM Code     492  epddrv.o(.text)
    ShowDate                                 0x00014860   ARM Code     836  epddrv.o(.text)
    calculateBannerLinePositionInfo          0x00014c40   ARM Code      84  epddrv.o(.text)
    calculateContainPositionInfo             0x00014c94   ARM Code     640  epddrv.o(.text)
    calculateContainNumberPositionInfo       0x00014f14   ARM Code     520  epddrv.o(.text)
    calculateDepositTimePositionInfo         0x0001511c   ARM Code     716  epddrv.o(.text)
    getCarPositionInfoIndex                  0x000162f4   ARM Code      92  epddrv.o(.text)
    .text                                    0x0001784c   Section        0  spacedrv.o(.text)
    SpaceDrvPreOffCallback                   0x0001784c   ARM Code      12  spacedrv.o(.text)
    SpaceDrvOffCallback                      0x00017858   ARM Code      48  spacedrv.o(.text)
    SpaceDrvOnCallback                       0x00017888   ARM Code      56  spacedrv.o(.text)
    SpaceDrvCheckStatus                      0x000178c0   ARM Code      16  spacedrv.o(.text)
    vSpaceDrvTask                            0x000178d0   ARM Code     940  spacedrv.o(.text)
    swInit                                   0x00017c7c   ARM Code      80  spacedrv.o(.text)
    .text                                    0x00017f9c   Section        0  timelib.o(.text)
    .text                                    0x00018504   Section        0  ts2000drv.o(.text)
    setcallBackValue                         0x00018504   ARM Code      32  ts2000drv.o(.text)
    CardFlushBuffer                          0x00018524   ARM Code      60  ts2000drv.o(.text)
    LRC                                      0x00018560   ARM Code      52  ts2000drv.o(.text)
    uart_w                                   0x00018594   ARM Code      48  ts2000drv.o(.text)
    uart_r                                   0x000185c4   ARM Code     868  ts2000drv.o(.text)
    parserMessage                            0x00018928   ARM Code    2352  ts2000drv.o(.text)
    Read_Time                                0x00019258   ARM Code     392  ts2000drv.o(.text)
    Read_CN                                  0x000193e0   ARM Code     112  ts2000drv.o(.text)
    Read_IVN                                 0x00019450   ARM Code     176  ts2000drv.o(.text)
    Read_ICD                                 0x00019500   ARM Code     460  ts2000drv.o(.text)
    iPass_Execute                            0x000196cc   ARM Code     664  ts2000drv.o(.text)
    .text                                    0x00019f24   Section        0  fatfslib.o(.text)
    hwInit                                   0x00019f24   ARM Code       8  fatfslib.o(.text)
    swInit                                   0x00019f2c   ARM Code      12  fatfslib.o(.text)
    .text                                    0x0001a648   Section        0  photoagent.o(.text)
    PhotoAgentPreOffCallback                 0x0001a648   ARM Code      12  photoagent.o(.text)
    PhotoAgentOffCallback                    0x0001a654   ARM Code      48  photoagent.o(.text)
    PhotoAgentOnCallback                     0x0001a684   ARM Code      12  photoagent.o(.text)
    PhotoAgentCheckStatus                    0x0001a690   ARM Code      16  photoagent.o(.text)
    vPhotoAgentTakePhotoTask                 0x0001a6a0   ARM Code      60  photoagent.o(.text)
    swInit                                   0x0001a6dc   ARM Code      80  photoagent.o(.text)
    .text                                    0x0001a860   Section        0  jsoncmdlib.o(.text)
    .text                                    0x0001afc4   Section        0  modemagent.o(.text)
    ModemAgentPreOffCallback                 0x0001afc4   ARM Code      24  modemagent.o(.text)
    ModemAgentOffCallback                    0x0001afdc   ARM Code      48  modemagent.o(.text)
    ModemAgentOnCallback                     0x0001b00c   ARM Code      56  modemagent.o(.text)
    ModemAgentCheckStatus                    0x0001b044   ARM Code      16  modemagent.o(.text)
    vModemAgentTask                          0x0001b054   ARM Code     864  modemagent.o(.text)
    hwInit                                   0x0001b3b4   ARM Code       8  modemagent.o(.text)
    swInit                                   0x0001b3bc   ARM Code     120  modemagent.o(.text)
    .text                                    0x0001b5f4   Section        0  tarifflib.o(.text)
    compare                                  0x0001b5f4   ARM Code      20  tarifflib.o(.text)
    sortTariffFile                           0x0001b608   ARM Code      28  tarifflib.o(.text)
    selectTariffFile                         0x0001b624   ARM Code     388  tarifflib.o(.text)
    checkTariffName                          0x0001b7a8   ARM Code     392  tarifflib.o(.text)
    tariffCallback                           0x0001b930   ARM Code     116  tarifflib.o(.text)
    loadTariffFileName                       0x0001b9a4   ARM Code     140  tarifflib.o(.text)
    resetJsonTariff                          0x0001ba30   ARM Code      36  tarifflib.o(.text)
    printJsonTariff                          0x0001ba54   ARM Code     100  tarifflib.o(.text)
    updateCurrentTariffData                  0x0001bab8   ARM Code     984  tarifflib.o(.text)
    loadJsonTariff                           0x0001be90   ARM Code    3244  tarifflib.o(.text)
    swInit                                   0x0001cd28   ARM Code      32  tarifflib.o(.text)
    applyData                                0x0001cd48   ARM Code       8  tarifflib.o(.text)
    .text                                    0x0001ce88   Section        0  yaffs2drv.o(.text)
    yaffs_regions_overlap                    0x0001ce88   ARM Code      84  yaffs2drv.o(.text)
    yaffs_file_type_str                      0x0001cedc   ARM Code      88  yaffs2drv.o(.text)
    yaffs_error_str                          0x0001cf34   ARM Code     732  yaffs2drv.o(.text)
    cmd_yaffs_ls                             0x0001d210   ARM Code     628  yaffs2drv.o(.text)
    cmd_yaffs_dev_ls                         0x0001d484   ARM Code     156  yaffs2drv.o(.text)
    cmd_yaffs_devconfig                      0x0001d520   ARM Code     844  yaffs2drv.o(.text)
    pinInit                                  0x0001d86c   ARM Code      80  yaffs2drv.o(.text)
    hwInit                                   0x0001d8bc   ARM Code      52  yaffs2drv.o(.text)
    swInit                                   0x0001d8f0   ARM Code       8  yaffs2drv.o(.text)
    .text                                    0x0001da0c   Section        0  dataprocesslib.o(.text)
    loadSimpleFile                           0x0001da0c   ARM Code    1120  dataprocesslib.o(.text)
    sendDataCallback                         0x0001de6c   ARM Code     128  dataprocesslib.o(.text)
    sendDataFile                             0x0001deec   ARM Code      84  dataprocesslib.o(.text)
    getDataFileCallback                      0x0001df40   ARM Code     208  dataprocesslib.o(.text)
    getDataFile                              0x0001e010   ARM Code    1148  dataprocesslib.o(.text)
    checkProcessExecuteFlag                  0x0001e48c   ARM Code      96  dataprocesslib.o(.text)
    executeProcess                           0x0001e4ec   ARM Code     340  dataprocesslib.o(.text)
    statusExecuteFunc                        0x0001e640   ARM Code     616  dataprocesslib.o(.text)
    dsfExecuteFunc                           0x0001e8a8   ARM Code      68  dataprocesslib.o(.text)
    dcfExecuteFunc                           0x0001e8ec   ARM Code      76  dataprocesslib.o(.text)
    photoExecuteFunc                         0x0001e938   ARM Code      68  dataprocesslib.o(.text)
    logExecuteFunc                           0x0001e97c   ARM Code     204  dataprocesslib.o(.text)
    tariffReloadCallback                     0x0001ea48   ARM Code      20  dataprocesslib.o(.text)
    tariffExecuteFunc                        0x0001ea5c   ARM Code     104  dataprocesslib.o(.text)
    paraReloadCallback                       0x0001eac4   ARM Code      20  dataprocesslib.o(.text)
    paraExecuteFunc                          0x0001ead8   ARM Code     104  dataprocesslib.o(.text)
    .text                                    0x0001fb1c   Section        0  loglib.o(.text)
    .text                                    0x0001fe8c   Section        0  ledcmdlib.o(.text)
    .text                                    0x00020360   Section        0  leddrv.o(.text)
    readCmdAck                               0x00020360   ARM Code     168  leddrv.o(.text)
    ledBoardWakeuped                         0x00020408   ARM Code      40  leddrv.o(.text)
    setLedBoardWakeup                        0x00020430   ARM Code      72  leddrv.o(.text)
    wakeupLedBoard                           0x00020478   ARM Code     100  leddrv.o(.text)
    shutdownLedBoard                         0x000204dc   ARM Code      92  leddrv.o(.text)
    setLedPara                               0x00020538   ARM Code     488  leddrv.o(.text)
    setColor                                 0x00020720   ARM Code     392  leddrv.o(.text)
    sendHeartbeat                            0x000208a8   ARM Code     164  leddrv.o(.text)
    vLedTask                                 0x0002094c   ARM Code     500  leddrv.o(.text)
    hwInit                                   0x00020b40   ARM Code     156  leddrv.o(.text)
    swInit                                   0x00020bdc   ARM Code      96  leddrv.o(.text)
    .text                                    0x00020ef4   Section        0  fileagent.o(.text)
    FileAgentPreOffCallback                  0x00020ef4   ARM Code      24  fileagent.o(.text)
    FileAgentOffCallback                     0x00020f0c   ARM Code      48  fileagent.o(.text)
    FileAgentOnCallback                      0x00020f3c   ARM Code      24  fileagent.o(.text)
    FileAgentCheckStatus                     0x00020f54   ARM Code      16  fileagent.o(.text)
    getChecksum                              0x00020f64   ARM Code      64  fileagent.o(.text)
    fatfsSaveToFile                          0x00020fa4   ARM Code    1124  fileagent.o(.text)
    fatfsGetReturnValueByDir                 0x00021408   ARM Code     160  fileagent.o(.text)
    fatfsGetFromFile                         0x00021670   ARM Code     920  fileagent.o(.text)
    fatfsAutoSaveToFile                      0x00021abc   ARM Code     812  fileagent.o(.text)
    fatfsAutoGetFromFile                     0x00021de8   ARM Code     152  fileagent.o(.text)
    fatfsAutoDelFile                         0x00021e80   ARM Code     176  fileagent.o(.text)
    fatfsAutoGetList                         0x0002228c   ARM Code     156  fileagent.o(.text)
    yaffs2SaveToFile                         0x00022328   ARM Code     852  fileagent.o(.text)
    yaffs2GetFromFile                        0x0002267c   ARM Code     952  fileagent.o(.text)
    processWrite                             0x00022a34   ARM Code     336  fileagent.o(.text)
    processRead                              0x00022b84   ARM Code     204  fileagent.o(.text)
    vFileAgentTask                           0x00022c50   ARM Code     452  fileagent.o(.text)
    listCallback                             0x00023580   ARM Code      28  fileagent.o(.text)
    delCallback                              0x0002359c   ARM Code      92  fileagent.o(.text)
    .text                                    0x00023708   Section        0  userdrv.o(.text)
    userDrvInit                              0x00023708   ARM Code     148  userdrv.o(.text)
    .text                                    0x00023838   Section        0  interface.o(.text)
    .text                                    0x00023944   Section        0  uart1drv.o(.text)
    hwInit                                   0x000239ac   ARM Code     400  uart1drv.o(.text)
    .text                                    0x00023d00   Section        0  uart2drv.o(.text)
    hwInit                                   0x00023d68   ARM Code     400  uart2drv.o(.text)
    .text                                    0x0002402c   Section        0  uart3drv.o(.text)
    hwInit                                   0x00024060   ARM Code     308  uart3drv.o(.text)
    .text                                    0x00024364   Section        0  uart4drv.o(.text)
    hwInit                                   0x00024398   ARM Code     352  uart4drv.o(.text)
    .text                                    0x000246c8   Section        0  uart7drv.o(.text)
    hwInit                                   0x000246fc   ARM Code     312  uart7drv.o(.text)
    .text                                    0x00024a04   Section        0  uart8drv.o(.text)
    hwInit                                   0x00024a38   ARM Code     352  uart8drv.o(.text)
    .text                                    0x00024cd4   Section        0  uart10drv.o(.text)
    hwInit                                   0x00024d3c   ARM Code     400  uart10drv.o(.text)
    .text                                    0x00025094   Section        0  spi0drv.o(.text)
    hwInit                                   0x00025104   ARM Code     172  spi0drv.o(.text)
    .text                                    0x000252d4   Section        0  spi1drv.o(.text)
    hwInit                                   0x0002532c   ARM Code     172  spi1drv.o(.text)
    .text                                    0x000254f0   Section        0  i2c1drv.o(.text)
    hwInit                                   0x000254f0   ARM Code     136  i2c1drv.o(.text)
    .text                                    0x00025648   Section        0  buzzerdrv.o(.text)
    buzzerPlay                               0x00025648   ARM Code      56  buzzerdrv.o(.text)
    vBuzzerDrvTask                           0x00025680   ARM Code     156  buzzerdrv.o(.text)
    hwInit                                   0x0002571c   ARM Code      88  buzzerdrv.o(.text)
    swInit                                   0x00025774   ARM Code      72  buzzerdrv.o(.text)
    .text                                    0x0002596c   Section        0  batterydrv.o(.text)
    NormalConvCallback                       0x0002596c   ARM Code     116  batterydrv.o(.text)
    measureBattery                           0x000259e0   ARM Code     196  batterydrv.o(.text)
    setBatterySwitchStatus                   0x00025aa4   ARM Code      88  batterydrv.o(.text)
    vBatteryDrvTask                          0x00025afc   ARM Code     916  batterydrv.o(.text)
    hwInit                                   0x00025e90   ARM Code     148  batterydrv.o(.text)
    swInit                                   0x00025f24   ARM Code      72  batterydrv.o(.text)
    .text                                    0x00026120   Section        0  dipdrv.o(.text)
    vDipDrvTask                              0x00026120   ARM Code     812  dipdrv.o(.text)
    processAction                            0x0002644c   ARM Code      48  dipdrv.o(.text)
    hwInit                                   0x0002664c   ARM Code     280  dipdrv.o(.text)
    swInit                                   0x00026764   ARM Code      72  dipdrv.o(.text)
    .text                                    0x000268ac   Section        0  rs232commdrv.o(.text)
    hwInit                                   0x000268ac   ARM Code       8  rs232commdrv.o(.text)
    swInit                                   0x000268b4   ARM Code       8  rs232commdrv.o(.text)
    .text                                    0x00026a8c   Section        0  flashdrvex.o(.text)
    setFlashCS                               0x00026a8c   ARM Code      84  flashdrvex.o(.text)
    SpiFlash_SectorErase                     0x00026ae0   ARM Code     192  flashdrvex.o(.text)
    SpiFlash_ReadStatusReg                   0x00026ba0   ARM Code     112  flashdrvex.o(.text)
    SpiFlash_WaitReady                       0x00026c10   ARM Code      40  flashdrvex.o(.text)
    SpiFlash_NormalPageProgram               0x00026c38   ARM Code     248  flashdrvex.o(.text)
    SpiFlash_NormalSectorProgram             0x00026d30   ARM Code      76  flashdrvex.o(.text)
    SpiFlash_NormalRead                      0x00026d7c   ARM Code     220  flashdrvex.o(.text)
    SpiFlash_ReadMidDid                      0x00026e58   ARM Code     256  flashdrvex.o(.text)
    hwInit                                   0x00026f58   ARM Code     272  flashdrvex.o(.text)
    swInit                                   0x00027068   ARM Code     408  flashdrvex.o(.text)
    .text                                    0x000277a0   Section        0  sddrv.o(.text)
    SYS_Init                                 0x000278d0   ARM Code     100  sddrv.o(.text)
    .text                                    0x00027b44   Section        0  sr04tdrv.o(.text)
    ETIMER_Is_Active                         0x00027b44   ARM Code      84  sr04tdrv.o(.text)
    ETIMER_Start                             0x00027b98   ARM Code     120  sr04tdrv.o(.text)
    ETIMER_Stop                              0x00027c10   ARM Code     120  sr04tdrv.o(.text)
    ETIMER_EnableInt                         0x00027c88   ARM Code     120  sr04tdrv.o(.text)
    ETIMER_EnableCaptureInt                  0x00027d00   ARM Code     120  sr04tdrv.o(.text)
    ETIMER_DisableCaptureInt                 0x00027d78   ARM Code     120  sr04tdrv.o(.text)
    ETIMER_GetIntFlag                        0x00027df0   ARM Code      80  sr04tdrv.o(.text)
    ETIMER_ClearIntFlag                      0x00027e40   ARM Code      88  sr04tdrv.o(.text)
    ETIMER_GetCaptureIntFlag                 0x00027e98   ARM Code      84  sr04tdrv.o(.text)
    ETIMER_ClearCaptureIntFlag               0x00027eec   ARM Code      88  sr04tdrv.o(.text)
    ETIMER_GetCaptureData                    0x00027f44   ARM Code      76  sr04tdrv.o(.text)
    setPower                                 0x00027f90   ARM Code     104  sr04tdrv.o(.text)
    settingToggle                            0x00027ff8   ARM Code      56  sr04tdrv.o(.text)
    startToggle                              0x00028030   ARM Code      92  sr04tdrv.o(.text)
    stopToggle                               0x0002808c   ARM Code      52  sr04tdrv.o(.text)
    startCapture                             0x000280c0   ARM Code     124  sr04tdrv.o(.text)
    stopCapture                              0x0002813c   ARM Code      92  sr04tdrv.o(.text)
    checkActive                              0x00028198   ARM Code      40  sr04tdrv.o(.text)
    runCapture                               0x000281c0   ARM Code     280  sr04tdrv.o(.text)
    swInit                                   0x000282d8   ARM Code       8  sr04tdrv.o(.text)
    ETMR0_IRQHandler                         0x000282e0   ARM Code     176  sr04tdrv.o(.text)
    ETMR1_IRQHandler                         0x00028390   ARM Code     176  sr04tdrv.o(.text)
    hwInit                                   0x00028440   ARM Code     440  sr04tdrv.o(.text)
    .text                                    0x00028718   Section        0  nt066edrv.o(.text)
    sendNT066EWriteCmd                       0x00028718   ARM Code     312  nt066edrv.o(.text)
    sendNT066EReadCmd                        0x00028850   ARM Code     312  nt066edrv.o(.text)
    processKeyEvent                          0x00028a24   ARM Code     208  nt066edrv.o(.text)
    vNT066EDrvTask                           0x00028af4   ARM Code     160  nt066edrv.o(.text)
    hwInit                                   0x00028ff0   ARM Code     160  nt066edrv.o(.text)
    swInit                                   0x00029090   ARM Code      72  nt066edrv.o(.text)
    .text                                    0x00029258   Section        0  ccsbcs.o(.text)
    .text                                    0x00029350   Section        0  diskio.o(.text)
    .text                                    0x0002964c   Section        0  ff.o(.text)
    mem_cpy                                  0x0002964c   ARM Code      40  ff.o(.text)
    mem_set                                  0x00029674   ARM Code      32  ff.o(.text)
    mem_cmp                                  0x00029694   ARM Code      60  ff.o(.text)
    chk_chr                                  0x000296d0   ARM Code      44  ff.o(.text)
    lock_fs                                  0x00029738   ARM Code      20  ff.o(.text)
    unlock_fs                                0x0002976c   ARM Code      64  ff.o(.text)
    sync_window                              0x000297ac   ARM Code     148  ff.o(.text)
    move_window                              0x00029840   ARM Code      96  ff.o(.text)
    sync_fs                                  0x000298a0   ARM Code     320  ff.o(.text)
    remove_chain                             0x00029e70   ARM Code     204  ff.o(.text)
    create_chain                             0x00029f3c   ARM Code     380  ff.o(.text)
    dir_sdi                                  0x0002a0b8   ARM Code     364  ff.o(.text)
    dir_next                                 0x0002a224   ARM Code     568  ff.o(.text)
    dir_alloc                                0x0002a45c   ARM Code     176  ff.o(.text)
    ld_clust                                 0x0002a50c   ARM Code      48  ff.o(.text)
    st_clust                                 0x0002a53c   ARM Code      40  ff.o(.text)
    cmp_lfn                                  0x0002a564   ARM Code     228  ff.o(.text)
    pick_lfn                                 0x0002a648   ARM Code     204  ff.o(.text)
    fit_lfn                                  0x0002a714   ARM Code     196  ff.o(.text)
    gen_numname                              0x0002a7d8   ARM Code     288  ff.o(.text)
    sum_sfn                                  0x0002a8f8   ARM Code      56  ff.o(.text)
    dir_find                                 0x0002a930   ARM Code     388  ff.o(.text)
    dir_read                                 0x0002aab4   ARM Code     340  ff.o(.text)
    dir_register                             0x0002ac08   ARM Code     576  ff.o(.text)
    dir_remove                               0x0002ae48   ARM Code     200  ff.o(.text)
    get_fileinfo                             0x0002af10   ARM Code     416  ff.o(.text)
    get_achar                                0x0002b0b0   ARM Code      72  ff.o(.text)
    pattern_matching                         0x0002b0f8   ARM Code     368  ff.o(.text)
    create_name                              0x0002b268   ARM Code    1268  ff.o(.text)
    follow_path                              0x0002b75c   ARM Code     312  ff.o(.text)
    get_ldnumber                             0x0002b894   ARM Code     144  ff.o(.text)
    check_fs                                 0x0002b924   ARM Code     208  ff.o(.text)
    find_volume                              0x0002b9f4   ARM Code    1584  ff.o(.text)
    validate                                 0x0002c024   ARM Code     136  ff.o(.text)
    .text                                    0x0002ecd8   Section        0  cjson.o(.text)
    cJSON_strcasecmp                         0x0002ecec   ARM Code     148  cjson.o(.text)
    cJSON_strdup                             0x0002ed80   ARM Code     100  cjson.o(.text)
    cJSON_New_Item                           0x0002ede4   ARM Code      52  cjson.o(.text)
    parse_number                             0x0002eebc   ARM Code     184  cjson.o(.text)
    ensure                                   0x0002efe4   ARM Code     272  cjson.o(.text)
    update                                   0x0002f0f4   ARM Code      72  cjson.o(.text)
    print_number                             0x0002f13c   ARM Code     704  cjson.o(.text)
    parse_hex4                               0x0002f3fc   ARM Code     180  cjson.o(.text)
    utf16_literal_to_utf8                    0x0002f4b0   ARM Code     544  cjson.o(.text)
    parse_string                             0x0002f6d0   ARM Code     672  cjson.o(.text)
    print_string_ptr                         0x0002f970   ARM Code     824  cjson.o(.text)
    print_string                             0x0002fca8   ARM Code      28  cjson.o(.text)
    skip                                     0x0002fcc4   ARM Code      44  cjson.o(.text)
    parse_object                             0x0002fcf0   ARM Code     364  cjson.o(.text)
    parse_array                              0x0002fe5c   ARM Code     272  cjson.o(.text)
    parse_value                              0x0002ff6c   ARM Code     320  cjson.o(.text)
    print_object                             0x000301a4   ARM Code    1940  cjson.o(.text)
    print_array                              0x00030938   ARM Code    1028  cjson.o(.text)
    print_value                              0x00030d3c   ARM Code     796  cjson.o(.text)
    suffix_object                            0x00031260   ARM Code      12  cjson.o(.text)
    create_reference                         0x0003126c   ARM Code      88  cjson.o(.text)
    DetachItemFromArray                      0x00031420   ARM Code     140  cjson.o(.text)
    ReplaceItemInArray                       0x000315f8   ARM Code     152  cjson.o(.text)
    .text                                    0x00031ea4   Section        0  atcmdparser.o(.text)
    printfBuffData                           0x00031ea4   ARM Code     132  atcmdparser.o(.text)
    fineCurrentCmdRegType                    0x00031f28   ARM Code     176  atcmdparser.o(.text)
    preProcessCmdData                        0x00031fd8   ARM Code     528  atcmdparser.o(.text)
    findStartAddress                         0x000321e8   ARM Code      88  atcmdparser.o(.text)
    .text                                    0x00032570   Section        0  quentelmodemlib.o(.text)
    printfBuffData                           0x00032570   ARM Code     144  quentelmodemlib.o(.text)
    parserString                             0x00032600   ARM Code     200  quentelmodemlib.o(.text)
    QModemWrite                              0x000326c8   ARM Code      92  quentelmodemlib.o(.text)
    QModemRead                               0x00032724   ARM Code      64  quentelmodemlib.o(.text)
    QModemIoctl                              0x00032764   ARM Code     164  quentelmodemlib.o(.text)
    resetRetryTimes                          0x0003285c   ARM Code      60  quentelmodemlib.o(.text)
    fineModemStageItem                       0x00032898   ARM Code      80  quentelmodemlib.o(.text)
    processCmdReqAction                      0x000328e8   ARM Code     100  quentelmodemlib.o(.text)
    processCmdReqActionPure                  0x0003294c   ARM Code     120  quentelmodemlib.o(.text)
    actionCmd                                0x000329c4   ARM Code     400  quentelmodemlib.o(.text)
    actionCmdPure                            0x00032b54   ARM Code     372  quentelmodemlib.o(.text)
    cmdProcess                               0x00032cc8   ARM Code     588  quentelmodemlib.o(.text)
    .text                                    0x00033ec0   Section        0  mtdcore.o(.text)
    .text                                    0x0003418c   Section        0  mtdpart.o(.text)
    part_read                                0x0003418c   ARM Code     256  mtdpart.o(.text)
    part_read_oob                            0x0003428c   ARM Code     192  mtdpart.o(.text)
    part_read_user_prot_reg                  0x0003434c   ARM Code      56  mtdpart.o(.text)
    part_get_user_prot_info                  0x00034384   ARM Code      44  mtdpart.o(.text)
    part_read_fact_prot_reg                  0x000343b0   ARM Code      56  mtdpart.o(.text)
    part_get_fact_prot_info                  0x000343e8   ARM Code      44  mtdpart.o(.text)
    part_write                               0x00034414   ARM Code     152  mtdpart.o(.text)
    part_panic_write                         0x000344ac   ARM Code     152  mtdpart.o(.text)
    part_write_oob                           0x00034544   ARM Code     156  mtdpart.o(.text)
    part_write_user_prot_reg                 0x000345e0   ARM Code      56  mtdpart.o(.text)
    part_lock_user_prot_reg                  0x00034618   ARM Code      52  mtdpart.o(.text)
    part_erase                               0x0003464c   ARM Code     204  mtdpart.o(.text)
    part_lock                                0x000347b8   ARM Code      92  mtdpart.o(.text)
    part_unlock                              0x00034814   ARM Code      92  mtdpart.o(.text)
    part_sync                                0x00034870   ARM Code      28  mtdpart.o(.text)
    part_block_isbad                         0x0003488c   ARM Code      80  mtdpart.o(.text)
    part_block_markbad                       0x000348dc   ARM Code     132  mtdpart.o(.text)
    add_one_partition                        0x000349f4   ARM Code    1820  mtdpart.o(.text)
    mtd_mod_by_eb                            0x00035238   ARM Code      52  mtdpart.o(.text)
    .text                                    0x0003526c   Section        0  nand.o(.text)
    nand_init_chip                           0x00035314   ARM Code     132  nand.o(.text)
    .text                                    0x00035404   Section        0  nand_base.o(.text)
    generic_ffs                              0x00035404   ARM Code     116  nand_base.o(.text)
    check_offs_len                           0x00035478   ARM Code     180  nand_base.o(.text)
    nand_release_device                      0x0003552c   ARM Code      32  nand_base.o(.text)
    nand_read_byte16                         0x00035560   ARM Code      24  nand_base.o(.text)
    nand_read_word                           0x00035578   ARM Code      28  nand_base.o(.text)
    nand_select_chip                         0x00035594   ARM Code     112  nand_base.o(.text)
    nand_verify_buf                          0x00035664   ARM Code      72  nand_base.o(.text)
    nand_verify_buf16                        0x00035724   ARM Code      84  nand_base.o(.text)
    nand_get_device                          0x00035778   ARM Code      16  nand_base.o(.text)
    nand_block_bad                           0x00035788   ARM Code     516  nand_base.o(.text)
    nand_fill_oob                            0x0003598c   ARM Code     344  nand_base.o(.text)
    nand_check_wp                            0x00035ae4   ARM Code      80  nand_base.o(.text)
    nand_do_write_oob                        0x00035b34   ARM Code     544  nand_base.o(.text)
    nand_default_block_markbad               0x00035d54   ARM Code     404  nand_base.o(.text)
    nand_block_checkbad                      0x00035ee8   ARM Code     124  nand_base.o(.text)
    nand_command                             0x00035fc0   ARM Code     556  nand_base.o(.text)
    nand_command_lp                          0x000361ec   ARM Code     752  nand_base.o(.text)
    nand_wait                                0x000364dc   ARM Code     240  nand_base.o(.text)
    nand_read_page_raw                       0x000365cc   ARM Code      68  nand_base.o(.text)
    nand_read_page_raw_syndrome              0x00036610   ARM Code     228  nand_base.o(.text)
    nand_read_page_swecc                     0x000366f4   ARM Code     344  nand_base.o(.text)
    nand_read_subpage                        0x0003684c   ARM Code     788  nand_base.o(.text)
    nand_read_page_hwecc                     0x00036b60   ARM Code     348  nand_base.o(.text)
    nand_read_page_hwecc_oob_first           0x00036cbc   ARM Code     360  nand_base.o(.text)
    nand_read_page_syndrome                  0x00036e24   ARM Code     360  nand_base.o(.text)
    nand_transfer_oob                        0x00036f8c   ARM Code     344  nand_base.o(.text)
    nand_do_read_ops                         0x000370e4   ARM Code    1144  nand_base.o(.text)
    nand_read                                0x0003755c   ARM Code     160  nand_base.o(.text)
    nand_read_oob_std                        0x000375fc   ARM Code      84  nand_base.o(.text)
    nand_read_oob_syndrome                   0x00037650   ARM Code     316  nand_base.o(.text)
    nand_write_oob_std                       0x0003778c   ARM Code     140  nand_base.o(.text)
    nand_write_oob_syndrome                  0x00037818   ARM Code     488  nand_base.o(.text)
    nand_do_read_oob                         0x00037a00   ARM Code     684  nand_base.o(.text)
    nand_read_oob                            0x00037cac   ARM Code     256  nand_base.o(.text)
    nand_write_page_raw                      0x00037dac   ARM Code      60  nand_base.o(.text)
    nand_write_page_raw_syndrome             0x00037de8   ARM Code     240  nand_base.o(.text)
    nand_write_page_swecc                    0x00037ed8   ARM Code     168  nand_base.o(.text)
    nand_write_page_hwecc                    0x00037f80   ARM Code     208  nand_base.o(.text)
    nand_write_page_syndrome                 0x00038050   ARM Code     280  nand_base.o(.text)
    nand_write_page                          0x00038168   ARM Code     292  nand_base.o(.text)
    nand_do_write_ops                        0x0003828c   ARM Code    1060  nand_base.o(.text)
    nand_write                               0x000386b0   ARM Code     160  nand_base.o(.text)
    nand_write_oob                           0x00038750   ARM Code     256  nand_base.o(.text)
    single_erase_cmd                         0x00038850   ARM Code      68  nand_base.o(.text)
    multi_erase_cmd                          0x00038894   ARM Code     152  nand_base.o(.text)
    nand_erase                               0x00038d90   ARM Code      32  nand_base.o(.text)
    nand_sync                                0x00038db0   ARM Code      48  nand_base.o(.text)
    nand_block_isbad                         0x00038de0   ARM Code      76  nand_base.o(.text)
    nand_block_markbad                       0x00038e2c   ARM Code      96  nand_base.o(.text)
    nand_set_defaults                        0x00038e8c   ARM Code     328  nand_base.o(.text)
    nand_get_flash_type                      0x00038fd4   ARM Code    2056  nand_base.o(.text)
    nand_bch_calculate_ecc                   0x0003a3d0   ARM Code      12  nand_base.o(.text)
    nand_bch_correct_data                    0x0003a3dc   ARM Code      12  nand_base.o(.text)
    .text                                    0x0003a3e8   Section        0  nand_bbt.o(.text)
    check_pattern_no_oob                     0x0003a3e8   ARM Code      56  nand_bbt.o(.text)
    check_pattern                            0x0003a420   ARM Code     416  nand_bbt.o(.text)
    check_short_pattern                      0x0003a5c0   ARM Code     152  nand_bbt.o(.text)
    add_marker_len                           0x0003a658   ARM Code      52  nand_bbt.o(.text)
    read_bbt                                 0x0003a68c   ARM Code     900  nand_bbt.o(.text)
    read_abs_bbt                             0x0003aa10   ARM Code     324  nand_bbt.o(.text)
    scan_read_raw_data                       0x0003ab54   ARM Code      84  nand_bbt.o(.text)
    scan_read_raw_oob                        0x0003aba8   ARM Code     232  nand_bbt.o(.text)
    scan_read_raw                            0x0003ac90   ARM Code      96  nand_bbt.o(.text)
    scan_write_bbt                           0x0003acf0   ARM Code      96  nand_bbt.o(.text)
    bbt_get_ver_offs                         0x0003ad50   ARM Code      32  nand_bbt.o(.text)
    read_abs_bbts                            0x0003ad70   ARM Code     268  nand_bbt.o(.text)
    scan_block_full                          0x0003ae7c   ARM Code     148  nand_bbt.o(.text)
    scan_block_fast                          0x0003af10   ARM Code     180  nand_bbt.o(.text)
    create_bbt                               0x0003afc4   ARM Code     748  nand_bbt.o(.text)
    search_bbt                               0x0003b2b0   ARM Code     624  nand_bbt.o(.text)
    search_read_bbts                         0x0003b520   ARM Code      68  nand_bbt.o(.text)
    write_bbt                                0x0003b564   ARM Code    2008  nand_bbt.o(.text)
    check_create                             0x0003bd3c   ARM Code     832  nand_bbt.o(.text)
    mark_bbt_region                          0x0003c21c   ARM Code     588  nand_bbt.o(.text)
    verify_bbt_descr                         0x0003c468   ARM Code     460  nand_bbt.o(.text)
    nand_create_default_bbt_descr            0x0003c818   ARM Code     388  nand_bbt.o(.text)
    .text                                    0x0003cc18   Section        0  yaffs_allocator.o(.text)
    list_add                                 0x0003cc18   ARM Code      24  yaffs_allocator.o(.text)
    yaffs_deinit_raw_tnodes                  0x0003cc30   ARM Code     120  yaffs_allocator.o(.text)
    yaffs_init_raw_tnodes                    0x0003cca8   ARM Code      76  yaffs_allocator.o(.text)
    yaffs_create_tnodes                      0x0003ccf4   ARM Code     540  yaffs_allocator.o(.text)
    yaffs_init_raw_objs                      0x0003cff4   ARM Code      96  yaffs_allocator.o(.text)
    yaffs_deinit_raw_objs                    0x0003d054   ARM Code     140  yaffs_allocator.o(.text)
    yaffs_create_free_objs                   0x0003d0e0   ARM Code     260  yaffs_allocator.o(.text)
    list_empty                               0x0003d3d8   ARM Code      32  yaffs_allocator.o(.text)
    .text                                    0x0003d3f8   Section        0  yaffs_attribs.o(.text)
    .text                                    0x0003d688   Section        0  yaffs_bitmap.o(.text)
    yaffs_block_bits                         0x0003d688   ARM Code     112  yaffs_bitmap.o(.text)
    .text                                    0x0003da24   Section        0  yaffs_checkptrw.o(.text)
    yaffs_get_block_info                     0x0003da24   ARM Code     108  yaffs_checkptrw.o(.text)
    yaffs2_checkpt_space_ok                  0x0003da90   ARM Code      72  yaffs_checkptrw.o(.text)
    yaffs_checkpt_erase                      0x0003dad8   ARM Code     536  yaffs_checkptrw.o(.text)
    yaffs2_checkpt_find_erased_block         0x0003dcf0   ARM Code     244  yaffs_checkptrw.o(.text)
    yaffs2_checkpt_find_block                0x0003dde4   ARM Code     296  yaffs_checkptrw.o(.text)
    yaffs2_checkpt_flush_buffer              0x0003e15c   ARM Code     360  yaffs_checkptrw.o(.text)
    .text                                    0x0003e748   Section        0  yaffs_ecc.o(.text)
    generic_hweight32                        0x0003e748   ARM Code     108  yaffs_ecc.o(.text)
    generic_hweight8                         0x0003e7b4   ARM Code      56  yaffs_ecc.o(.text)
    .text                                    0x0003ec28   Section        0  yaffs_guts.o(.text)
    list_add                                 0x0003ec28   ARM Code      24  yaffs_guts.o(.text)
    list_del_init                            0x0003ec40   ARM Code      36  yaffs_guts.o(.text)
    yaffs_get_block_info                     0x0003ec64   ARM Code     108  yaffs_guts.o(.text)
    yaffs_init_tmp_buffers                   0x0003ed50   ARM Code     112  yaffs_guts.o(.text)
    yaffs_handle_chunk_wr_ok                 0x0003f040   ARM Code      20  yaffs_guts.o(.text)
    yaffs_handle_chunk_update                0x0003f054   ARM Code      16  yaffs_guts.o(.text)
    yaffs_retire_block                       0x0003f148   ARM Code     552  yaffs_guts.o(.text)
    yaffs_check_chunk_erased                 0x0003f3a4   ARM Code     156  yaffs_guts.o(.text)
    yaffs_handle_chunk_wr_error              0x0003f974   ARM Code     260  yaffs_guts.o(.text)
    yaffs_hash_fn                            0x0003fa78   ARM Code      40  yaffs_guts.o(.text)
    yaffs_verify_chunk_written               0x0003fab8   ARM Code     160  yaffs_guts.o(.text)
    yaffs_find_alloc_block                   0x0003fba0   ARM Code     288  yaffs_guts.o(.text)
    yaffs_alloc_chunk                        0x0003fcc0   ARM Code     536  yaffs_guts.o(.text)
    yaffs_get_erased_chunks                  0x0003fed8   ARM Code      48  yaffs_guts.o(.text)
    yaffs_write_new_chunk                    0x0003ff08   ARM Code     480  yaffs_guts.o(.text)
    yaffs_calc_name_sum                      0x000400e8   ARM Code      96  yaffs_guts.o(.text)
    yaffs_free_tnode                         0x0004029c   ARM Code      48  yaffs_guts.o(.text)
    yaffs_deinit_tnodes_and_objs             0x000402cc   ARM Code      32  yaffs_guts.o(.text)
    yaffs_tags_match                         0x00040668   ARM Code      56  yaffs_guts.o(.text)
    yaffs_find_chunk_in_group                0x000406a0   ARM Code     228  yaffs_guts.o(.text)
    yaffs_find_chunk_in_file                 0x00040784   ARM Code     140  yaffs_guts.o(.text)
    yaffs_find_del_file_chunk                0x00040810   ARM Code     168  yaffs_guts.o(.text)
    yaffs_soft_del_chunk                     0x00040a7c   ARM Code     368  yaffs_guts.o(.text)
    yaffs_soft_del_worker                    0x00040bec   ARM Code     256  yaffs_guts.o(.text)
    yaffs_remove_obj_from_dir                0x00040cec   ARM Code      92  yaffs_guts.o(.text)
    yaffs_obj_cache_dirty                    0x00040e74   ARM Code      92  yaffs_guts.o(.text)
    yaffs_apply_xattrib_mod                  0x00040ed0   ARM Code     172  yaffs_guts.o(.text)
    yaffs_load_oh_from_name                  0x00040fd4   ARM Code      40  yaffs_guts.o(.text)
    yaffs_check_obj_details_loaded           0x0004106c   ARM Code     180  yaffs_guts.o(.text)
    yaffs_unhash_obj                         0x00041120   ARM Code      88  yaffs_guts.o(.text)
    yaffs_free_obj                           0x00041178   ARM Code     284  yaffs_guts.o(.text)
    yaffs_invalidate_whole_cache             0x00041294   ARM Code      88  yaffs_guts.o(.text)
    yaffs_generic_obj_del                    0x000412ec   ARM Code     136  yaffs_guts.o(.text)
    yaffs_gc_process_chunk                   0x000413ec   ARM Code     940  yaffs_guts.o(.text)
    yaffs_gc_block                           0x00041798   ARM Code     940  yaffs_guts.o(.text)
    yaffs_find_gc_block                      0x00041b44   ARM Code    1060  yaffs_guts.o(.text)
    yaffs_check_gc                           0x00041f68   ARM Code     716  yaffs_guts.o(.text)
    yaffs_fix_null_name                      0x00042664   ARM Code     180  yaffs_guts.o(.text)
    yaffs_load_name_from_oh                  0x00042718   ARM Code      44  yaffs_guts.o(.text)
    yaffs_change_obj_name                    0x00042a50   ARM Code     348  yaffs_guts.o(.text)
    yaffs_wr_data_obj                        0x00042bac   ARM Code     336  yaffs_guts.o(.text)
    yaffs_flush_file_cache                   0x00042cfc   ARM Code     276  yaffs_guts.o(.text)
    yaffs_grab_chunk_worker                  0x00042f04   ARM Code      84  yaffs_guts.o(.text)
    yaffs_grab_chunk_cache                   0x00042f58   ARM Code     252  yaffs_guts.o(.text)
    yaffs_find_chunk_cache                   0x00043054   ARM Code     140  yaffs_guts.o(.text)
    yaffs_use_cache                          0x000430e0   ARM Code     148  yaffs_guts.o(.text)
    yaffs_invalidate_chunk_cache             0x00043174   ARM Code      64  yaffs_guts.o(.text)
    yaffs_soft_del_file                      0x000431d8   ARM Code     164  yaffs_guts.o(.text)
    yaffs_prune_worker                       0x0004327c   ARM Code     244  yaffs_guts.o(.text)
    yaffs_prune_tree                         0x00043370   ARM Code     228  yaffs_guts.o(.text)
    yaffs_alloc_empty_obj                    0x00043454   ARM Code     248  yaffs_guts.o(.text)
    yaffs_find_nice_bucket                   0x0004354c   ARM Code     120  yaffs_guts.o(.text)
    yaffs_new_obj_id                         0x000435c4   ARM Code     120  yaffs_guts.o(.text)
    yaffs_hash_obj                           0x0004363c   ARM Code      84  yaffs_guts.o(.text)
    yaffs_create_fake_dir                    0x00043808   ARM Code     136  yaffs_guts.o(.text)
    yaffs_init_tnodes_and_objs               0x00043890   ARM Code     132  yaffs_guts.o(.text)
    yaffs_update_parent                      0x00043964   ARM Code     168  yaffs_guts.o(.text)
    yaffs_del_link                           0x00043aa8   ARM Code      28  yaffs_guts.o(.text)
    yaffs_del_symlink                        0x00043ac4   ARM Code      36  yaffs_guts.o(.text)
    yaffs_del_dir                            0x00043b24   ARM Code      44  yaffs_guts.o(.text)
    yaffs_rd_data_obj                        0x00043b50   ARM Code     284  yaffs_guts.o(.text)
    yaffs_prune_chunks                       0x00043c6c   ARM Code     372  yaffs_guts.o(.text)
    yaffs_unlink_file_if_needed              0x00043fd4   ARM Code     232  yaffs_guts.o(.text)
    yaffs_create_obj                         0x00044300   ARM Code     428  yaffs_guts.o(.text)
    yaffs_deinit_blocks                      0x00044680   ARM Code     144  yaffs_guts.o(.text)
    yaffs_init_blocks                        0x00044710   ARM Code     292  yaffs_guts.o(.text)
    yaffs_do_xattrib_mod                     0x00044894   ARM Code     120  yaffs_guts.o(.text)
    yaffs_do_xattrib_fetch                   0x0004490c   ARM Code     404  yaffs_guts.o(.text)
    yaffs_unlink_worker                      0x00045218   ARM Code     416  yaffs_guts.o(.text)
    yaffs_unlink_obj                         0x000453b8   ARM Code      52  yaffs_guts.o(.text)
    yaffs_strip_deleted_objs                 0x000456dc   ARM Code     152  yaffs_guts.o(.text)
    yaffs_has_null_parent                    0x00045774   ARM Code      56  yaffs_guts.o(.text)
    yaffs_fix_hanging_objs                   0x000457ac   ARM Code     336  yaffs_guts.o(.text)
    yaffs_del_dir_contents                   0x000458fc   ARM Code     144  yaffs_guts.o(.text)
    yaffs_empty_l_n_f                        0x0004598c   ARM Code      20  yaffs_guts.o(.text)
    yaffs_check_dev_fns                      0x00045c04   ARM Code     216  yaffs_guts.o(.text)
    yaffs_create_initial_dir                 0x00045cdc   ARM Code     184  yaffs_guts.o(.text)
    list_empty                               0x00046910   ARM Code      32  yaffs_guts.o(.text)
    .text                                    0x00046930   Section        0  yaffs_malloc.o(.text)
    .text                                    0x00046ef4   Section        0  yaffs_mtdif.o(.text)
    translate_spare2oob                      0x000471c4   ARM Code     144  yaffs_mtdif.o(.text)
    translate_oob2spare                      0x00047254   ARM Code     196  yaffs_mtdif.o(.text)
    .text                                    0x00047318   Section        0  yaffs_mtdif2.o(.text)
    .text                                    0x00047a10   Section        0  yaffs_nameval.o(.text)
    nval_find                                0x00047a10   ARM Code     208  yaffs_nameval.o(.text)
    nval_used                                0x00047ae0   ARM Code     132  yaffs_nameval.o(.text)
    .text                                    0x00047f68   Section        0  yaffs_nand.o(.text)
    .text                                    0x00048390   Section        0  yaffs_packedtags2.o(.text)
    yaffs_dump_packed_tags2_tags_only        0x00048390   ARM Code      48  yaffs_packedtags2.o(.text)
    yaffs_dump_packed_tags2                  0x000483c0   ARM Code      20  yaffs_packedtags2.o(.text)
    yaffs_dump_tags2                         0x000483d4   ARM Code      92  yaffs_packedtags2.o(.text)
    yaffs_check_tags_extra_packable          0x00048430   ARM Code     108  yaffs_packedtags2.o(.text)
    .text                                    0x000487bc   Section        0  yaffs_qsort.o(.text)
    swapfunc                                 0x000487bc   ARM Code     124  yaffs_qsort.o(.text)
    med3                                     0x00048838   ARM Code     168  yaffs_qsort.o(.text)
    .text                                    0x00048dec   Section        0  yaffs_summary.o(.text)
    yaffs_get_block_info                     0x00048dec   ARM Code     108  yaffs_summary.o(.text)
    yaffs_summary_clear                      0x00048e58   ARM Code      52  yaffs_summary.o(.text)
    yaffs_summary_sum                        0x00048f50   ARM Code      56  yaffs_summary.o(.text)
    yaffs_summary_write                      0x00048f88   ARM Code     596  yaffs_summary.o(.text)
    .text                                    0x000495d4   Section        0  yaffs_tagscompat.o(.text)
    generic_hweight8                         0x000495d4   ARM Code      56  yaffs_tagscompat.o(.text)
    yaffs_load_tags_to_spare                 0x00049730   ARM Code      92  yaffs_tagscompat.o(.text)
    yaffs_get_tags_from_spare                0x0004978c   ARM Code     144  yaffs_tagscompat.o(.text)
    yaffs_spare_init                         0x0004981c   ARM Code      28  yaffs_tagscompat.o(.text)
    yaffs_wr_nand                            0x00049838   ARM Code     104  yaffs_tagscompat.o(.text)
    yaffs_handle_rd_data_error               0x000498a0   ARM Code     176  yaffs_tagscompat.o(.text)
    yaffs_rd_chunk_nand                      0x00049950   ARM Code    1444  yaffs_tagscompat.o(.text)
    .text                                    0x0004a340   Section        0  yaffs_verify.o(.text)
    yaffs_skip_full_verification             0x0004a368   ARM Code      28  yaffs_verify.o(.text)
    yaffs_skip_nand_verification             0x0004a384   ARM Code      28  yaffs_verify.o(.text)
    .text                                    0x0004b80c   Section        0  yaffs_yaffs1.o(.text)
    .text                                    0x0004c2c4   Section        0  yaffs_yaffs2.o(.text)
    list_add                                 0x0004c2c4   ARM Code      24  yaffs_yaffs2.o(.text)
    yaffs2_wr_checkpt_validity_marker        0x0004c698   ARM Code     124  yaffs_yaffs2.o(.text)
    yaffs2_rd_checkpt_validity_marker        0x0004c714   ARM Code     176  yaffs_yaffs2.o(.text)
    yaffs2_dev_to_checkpt_dev                0x0004c7c4   ARM Code      68  yaffs_yaffs2.o(.text)
    yaffs_checkpt_dev_to_dev                 0x0004c808   ARM Code      68  yaffs_yaffs2.o(.text)
    yaffs2_wr_checkpt_dev                    0x0004c84c   ARM Code     240  yaffs_yaffs2.o(.text)
    yaffs2_rd_checkpt_dev                    0x0004c93c   ARM Code     252  yaffs_yaffs2.o(.text)
    yaffs2_obj_checkpt_obj                   0x0004ca38   ARM Code     328  yaffs_yaffs2.o(.text)
    yaffs2_checkpt_obj_to_obj                0x0004cb80   ARM Code     544  yaffs_yaffs2.o(.text)
    yaffs2_checkpt_tnode_worker              0x0004cda0   ARM Code     240  yaffs_yaffs2.o(.text)
    yaffs2_wr_checkpt_tnodes                 0x0004ce90   ARM Code     136  yaffs_yaffs2.o(.text)
    yaffs2_rd_checkpt_tnodes                 0x0004cf18   ARM Code     332  yaffs_yaffs2.o(.text)
    yaffs2_wr_checkpt_objs                   0x0004d064   ARM Code     344  yaffs_yaffs2.o(.text)
    yaffs2_rd_checkpt_objs                   0x0004d1bc   ARM Code     584  yaffs_yaffs2.o(.text)
    yaffs2_wr_checkpt_sum                    0x0004d404   ARM Code      84  yaffs_yaffs2.o(.text)
    yaffs2_rd_checkpt_sum                    0x0004d458   ARM Code     108  yaffs_yaffs2.o(.text)
    yaffs2_wr_checkpt_data                   0x0004d4c4   ARM Code     340  yaffs_yaffs2.o(.text)
    yaffs2_rd_checkpt_data                   0x0004d618   ARM Code     716  yaffs_yaffs2.o(.text)
    yaffs2_ybicmp                            0x0004dcf8   ARM Code      48  yaffs_yaffs2.o(.text)
    yaffs2_scan_chunk                        0x0004dd28   ARM Code    2668  yaffs_yaffs2.o(.text)
    .text                                    0x0004ef10   Section        0  yaffsfs.o(.text)
    list_add                                 0x0004ef10   ARM Code      24  yaffsfs.o(.text)
    yaffsfs_InitHandles                      0x0004ef48   ARM Code     160  yaffsfs.o(.text)
    yaffsfs_HandleToPointer                  0x0004efe8   ARM Code      40  yaffsfs.o(.text)
    yaffsfs_HandleToFileDes                  0x0004f010   ARM Code      88  yaffsfs.o(.text)
    yaffsfs_HandleToInode                    0x0004f068   ARM Code     116  yaffsfs.o(.text)
    yaffsfs_HandleToObject                   0x0004f0dc   ARM Code      44  yaffsfs.o(.text)
    yaffsfs_FindInodeIdForObject             0x0004f108   ARM Code      92  yaffsfs.o(.text)
    yaffsfs_GetInodeIdForObject              0x0004f164   ARM Code     156  yaffsfs.o(.text)
    yaffsfs_CountHandles                     0x0004f200   ARM Code      48  yaffsfs.o(.text)
    yaffsfs_ReleaseInode                     0x0004f230   ARM Code      52  yaffsfs.o(.text)
    yaffsfs_PutInode                         0x0004f264   ARM Code      80  yaffsfs.o(.text)
    yaffsfs_NewHandle                        0x0004f2b4   ARM Code     100  yaffsfs.o(.text)
    yaffsfs_NewHandleAndFileDes              0x0004f318   ARM Code     188  yaffsfs.o(.text)
    yaffsfs_GetHandle                        0x0004f3d4   ARM Code      76  yaffsfs.o(.text)
    yaffsfs_PutFileDes                       0x0004f420   ARM Code     152  yaffsfs.o(.text)
    yaffsfs_PutHandle                        0x0004f4b8   ARM Code      96  yaffsfs.o(.text)
    yaffsfs_BreakDeviceHandles               0x0004f518   ARM Code     196  yaffsfs.o(.text)
    yaffsfs_alt_dir_path                     0x0004f694   ARM Code     200  yaffsfs.o(.text)
    yaffsfs_FindDevice                       0x0004f75c   ARM Code     412  yaffsfs.o(.text)
    yaffsfs_CheckPath                        0x0004f8f8   ARM Code     112  yaffsfs.o(.text)
    yaffsfs_FindMountPoint                   0x0004f968   ARM Code      80  yaffsfs.o(.text)
    yaffsfs_FindRoot                         0x0004f9b8   ARM Code      64  yaffsfs.o(.text)
    yaffsfs_DoFindDirectory                  0x0004f9f8   ARM Code     408  yaffsfs.o(.text)
    yaffsfs_FindDirectory                    0x0004fb90   ARM Code      52  yaffsfs.o(.text)
    yaffsfs_FindObject                       0x0004fbc4   ARM Code     148  yaffsfs.o(.text)
    yaffsfs_FollowLink                       0x0004fc58   ARM Code     180  yaffsfs.o(.text)
    yaffsfs_TooManyObjects                   0x0004fdd0   ARM Code      56  yaffsfs.o(.text)
    yaffsfs_DoStat                           0x000515dc   ARM Code     296  yaffsfs.o(.text)
    yaffsfs_DoStatOrLStat                    0x00051704   ARM Code     320  yaffsfs.o(.text)
    yaffsfs_DoUtime                          0x000518ec   ARM Code     184  yaffsfs.o(.text)
    yaffs_do_setxattr                        0x00051b04   ARM Code     352  yaffsfs.o(.text)
    yaffs_do_getxattr                        0x00051d78   ARM Code     348  yaffsfs.o(.text)
    yaffs_do_listxattr                       0x00051fd0   ARM Code     340  yaffsfs.o(.text)
    yaffs_do_removexattr                     0x000521f8   ARM Code     332  yaffsfs.o(.text)
    yaffsfs_DoChMod                          0x00052400   ARM Code     104  yaffsfs.o(.text)
    yaffsfs_IsDevBusy                        0x00052cec   ARM Code      76  yaffsfs.o(.text)
    yaffsfs_DirAdvance                       0x000531a4   ARM Code     140  yaffsfs.o(.text)
    yaffsfs_RemoveObjectCallback             0x00053230   ARM Code      96  yaffsfs.o(.text)
    yaffsfs_SetDirRewound                    0x000533a0   ARM Code     112  yaffsfs.o(.text)
    list_del                                 0x00053da4   ARM Code      20  yaffsfs.o(.text)
    list_empty                               0x00053db8   ARM Code      32  yaffsfs.o(.text)
    .text                                    0x00053dd8   Section        0  fmi_nand.o(.text)
    nuc970_layout_oob_table                  0x00053e30   ARM Code      44  fmi_nand.o(.text)
    nuc970_hwcontrol                         0x00053e5c   ARM Code      72  fmi_nand.o(.text)
    nuc970_nand_select_chip                  0x00053ea4   ARM Code      28  fmi_nand.o(.text)
    nuc970_dev_ready                         0x00053ec0   ARM Code      24  fmi_nand.o(.text)
    nuc970_nand_command                      0x00053ed8   ARM Code     640  fmi_nand.o(.text)
    nuc970_nand_read_byte                    0x00054158   ARM Code      20  fmi_nand.o(.text)
    nuc970_nand_write_buf                    0x0005416c   ARM Code      44  fmi_nand.o(.text)
    nuc970_nand_read_buf                     0x00054198   ARM Code      40  fmi_nand.o(.text)
    nuc970_nand_calculate_ecc                0x000541c4   ARM Code      12  fmi_nand.o(.text)
    nuc970_nand_correct_data                 0x000541d0   ARM Code      12  fmi_nand.o(.text)
    _nuc970_nand_dma_transfer                0x00054704   ARM Code     648  fmi_nand.o(.text)
    nuc970_nand_write_page_hwecc             0x0005498c   ARM Code     148  fmi_nand.o(.text)
    nuc970_nand_read_page_hwecc_oob_first    0x00054a20   ARM Code     148  fmi_nand.o(.text)
    nuc970_nand_read_oob_hwecc               0x00054ab4   ARM Code      96  fmi_nand.o(.text)
    .text                                    0x00054fbc   Section        0  osmisc.o(.text)
    .text                                    0x00055484   Section        0  queue.o(.text)
    prvInitialiseNewQueue                    0x0005553c   ARM Code      72  queue.o(.text)
    prvUnlockQueue                           0x000555e0   ARM Code     228  queue.o(.text)
    prvIsQueueFull                           0x000556c4   ARM Code      52  queue.o(.text)
    prvCopyDataToQueue                       0x000556f8   ARM Code     240  queue.o(.text)
    prvInitialiseMutex                       0x00055960   ARM Code      56  queue.o(.text)
    prvIsQueueEmpty                          0x00055b58   ARM Code      48  queue.o(.text)
    prvCopyDataFromQueue                     0x00055b88   ARM Code      84  queue.o(.text)
    .text                                    0x00055f80   Section        0  tasks.o(.text)
    prvInitialiseTaskLists                   0x00055f80   ARM Code     108  tasks.o(.text)
    prvAddNewTaskToReadyList                 0x00055fec   ARM Code     268  tasks.o(.text)
    prvInitialiseNewTask                     0x000560f8   ARM Code     236  tasks.o(.text)
    prvResetNextTaskUnblockTime              0x00056288   ARM Code      88  tasks.o(.text)
    prvDeleteTCB                             0x000562e0   ARM Code      28  tasks.o(.text)
    prvAddCurrentTaskToDelayedList           0x000566f8   ARM Code     180  tasks.o(.text)
    prvTaskIsTaskSuspended                   0x00056b5c   ARM Code     124  tasks.o(.text)
    prvCheckTasksWaitingTermination          0x00056d1c   ARM Code     236  tasks.o(.text)
    prvIdleTask                              0x00056e08   ARM Code      36  tasks.o(.text)
    prvTaskCheckFreeStackSpace               0x00056f1c   ARM Code      48  tasks.o(.text)
    prvListTasksWithinSingleList             0x00057018   ARM Code     200  tasks.o(.text)
    prvWriteNameToBuffer                     0x00057634   ARM Code      76  tasks.o(.text)
    .text                                    0x00057d98   Section        0  heap_4.o(.text)
    prvInsertBlockIntoFreeList               0x00057d98   ARM Code     188  heap_4.o(.text)
    prvHeapInit                              0x00057e54   ARM Code     176  heap_4.o(.text)
    .text                                    0x00058110   Section        0  list.o(.text)
    .text                                    0x00058224   Section        0  port.o(.text)
    prvSetupTimerInterrupt                   0x00058300   ARM Code      12  port.o(.text)
    .text                                    0x000583a0   Section        0  h1_free.o(.text)
    .text                                    0x000583ec   Section      752  lludiv5.o(.text)
    .text                                    0x000586dc   Section       40  llshl.o(.text)
    .text                                    0x00058704   Section       40  llushr.o(.text)
    .text                                    0x0005872c   Section       40  llsshr.o(.text)
    .text                                    0x00058754   Section       80  llsdiv.o(.text)
    .text                                    0x000587a4   Section        0  tolower.o(.text)
    .text                                    0x000587c0   Section        0  __2sprintf.o(.text)
    .text                                    0x000587ec   Section        0  _printf_pad.o(.text)
    .text                                    0x0005883a   Section        0  _printf_str.o(.text)
    .text                                    0x00058894   Section        0  _printf_dec.o(.text)
    .text                                    0x00058908   Section        0  _printf_hex_int.o(.text)
    .text                                    0x00058960   Section        0  __printf_flags_ss_wp.o(.text)
    .text                                    0x00058ae8   Section        0  qsortnoex.o(.text)
    _partition_sort                          0x00058ae9   Thumb Code   510  qsortnoex.o(.text)
    .text                                    0x00058d70   Section        0  strchr.o(.text)
    .text                                    0x00058d86   Section        0  memcmp.o(.text)
    .text                                    0x00058dfc   Section        0  strcpy.o(.text)
    .text                                    0x00058e48   Section        0  strlen.o(.text)
    .text                                    0x00058e8c   Section        0  strncmp.o(.text)
    .text                                    0x00058f20   Section        0  strcat.o(.text)
    .text                                    0x00058f38   Section      212  rt_memcpy.o(.text)
    .text                                    0x0005900c   Section      100  rt_memcpy_w.o(.text)
    .text                                    0x00059070   Section       16  aeabi_memset.o(.text)
    .text                                    0x00059080   Section       64  rt_memclr.o(.text)
    .text                                    0x000590c0   Section       84  rt_memclr_w.o(.text)
    .text                                    0x00059114   Section      108  strncpy.o(.text)
    .text                                    0x00059180   Section      160  strcmp.o(.text)
    .text                                    0x00059220   Section       32  uread4.o(.text)
    .text                                    0x00059240   Section       32  uwrite4.o(.text)
    .text                                    0x00059260   Section        0  mktime.o(.text)
    _tm_carry                                0x00059261   Thumb Code    64  mktime.o(.text)
    .text                                    0x00059410   Section      380  aeabi_sdiv.o(.text)
    __arm_div8                               0x0005943c   ARM Code       0  aeabi_sdiv.o(.text)
    __arm_div5                               0x00059460   ARM Code       0  aeabi_sdiv.o(.text)
    __arm_div2                               0x00059484   ARM Code       0  aeabi_sdiv.o(.text)
    __arm_div_large                          0x000594c0   ARM Code       0  aeabi_sdiv.o(.text)
    .text                                    0x0005958c   Section       20  rt_ctype_table.o(.text)
    .text                                    0x000595a0   Section       12  rt_heap_descriptor.o(.text)
    .text                                    0x000595ac   Section       12  rt_errno_addr.o(.text)
    .text                                    0x000595b8   Section        0  _printf_intcommon.o(.text)
    .text                                    0x00059668   Section        0  _printf_fp_dec.o(.text)
    _fp_digits                               0x0005966b   Thumb Code   410  _printf_fp_dec.o(.text)
    .text                                    0x00059a7c   Section        0  _printf_char_common.o(.text)
    _printf_input_char                       0x00059a7d   Thumb Code    10  _printf_char_common.o(.text)
    .text                                    0x00059aac   Section        0  _sputc.o(.text)
    .text                                    0x00059ac0   Section        0  _printf_char.o(.text)
    .text                                    0x00059af0   Section        0  strtod.o(.text)
    _local_sscanf                            0x00059af1   Thumb Code    60  strtod.o(.text)
    .text                                    0x00059b98   Section       44  rtudiv10.o(.text)
    .text                                    0x00059bc4   Section       12  rt_locale.o(.text)
    .text                                    0x00059bd0   Section      152  lludiv10.o(.text)
    .text                                    0x00059c68   Section        0  isspace.o(.text)
    .text                                    0x00059c7c   Section        0  _printf_fp_infnan.o(.text)
    .text                                    0x00059d04   Section        0  _sgetc.o(.text)
    .text                                    0x00059d48   Section        0  bigflt0.o(.text)
    .text                                    0x00059e1c   Section        0  _chval.o(.text)
    .text                                    0x00059e3c   Section        0  scanf_fp.o(.text)
    _fp_value                                0x00059e3d   Thumb Code   528  scanf_fp.o(.text)
    .text                                    0x0005a314   Section        0  exit.o(.text)
    .text                                    0x0005a320   Section       24  llmul.o(.text)
    .text                                    0x0005a340   Section        0  _rserrno.o(.text)
    .text                                    0x0005a360   Section        0  scanf_hexfp.o(.text)
    .text                                    0x0005a690   Section        0  scanf_infnan.o(.text)
    .text_udiv                               0x0005a7d0   Section       36  aeabi_sdiv.o(.text_udiv)
    CL$$btod_d2e                             0x0005a7f4   Section       56  btod.o(CL$$btod_d2e)
    CL$$btod_d2e_denorm_low                  0x0005a82c   Section       84  btod.o(CL$$btod_d2e_denorm_low)
    CL$$btod_d2e_norm_op1                    0x0005a880   Section      104  btod.o(CL$$btod_d2e_norm_op1)
    CL$$btod_div_common                      0x0005a8e8   Section      840  btod.o(CL$$btod_div_common)
    CL$$btod_e2d                             0x0005ac30   Section       92  btod.o(CL$$btod_e2d)
    CL$$btod_e2e                             0x0005ac8c   Section      220  btod.o(CL$$btod_e2e)
    CL$$btod_ediv                            0x0005ad68   Section       48  btod.o(CL$$btod_ediv)
    CL$$btod_edivd                           0x0005ad98   Section       48  btod.o(CL$$btod_edivd)
    CL$$btod_emul                            0x0005adc8   Section       48  btod.o(CL$$btod_emul)
    CL$$btod_emuld                           0x0005adf8   Section       48  btod.o(CL$$btod_emuld)
    CL$$btod_mult_common                     0x0005ae28   Section      612  btod.o(CL$$btod_mult_common)
    PORT_ASM                                 0x0005b08c   Section      336  portasm.o(PORT_ASM)
    SYS_INIT                                 0x0005b1dc   Section       48  sys_nuc970.o(SYS_INIT)
    i.__ARM_fpclassify                       0x0005b224   Section        0  fpclassify.o(i.__ARM_fpclassify)
    i.__mathlib_dbl_underflow                0x0005b254   Section        0  dunder.o(i.__mathlib_dbl_underflow)
    i.__mathlib_narrow                       0x0005b268   Section        0  narrow.o(i.__mathlib_narrow)
    i.__mathlib_tofloat                      0x0005b280   Section        0  narrow.o(i.__mathlib_tofloat)
    i.__support_ldexp                        0x0005b350   Section        0  ldexp.o(i.__support_ldexp)
    i._is_digit                              0x0005b370   Section        0  __printf_wp.o(i._is_digit)
    i.floor                                  0x0005b380   Section        0  floor.o(i.floor)
    i.frexp                                  0x0005b4b0   Section        0  frexp.o(i.frexp)
    i.ldexp                                  0x0005b524   Section        0  ldexp.o(i.ldexp)
    i.strtod                                 0x0005b5ec   Section        0  strtod.o(i.strtod)
    locale$$code                             0x0005b61c   Section       72  lc_ctype_c.o(locale$$code)
    locale$$code                             0x0005b664   Section       72  lc_numeric_c.o(locale$$code)
    x$fpl$d2f                                0x0005b6ac   Section      108  d2f.o(x$fpl$d2f)
    x$fpl$dadd                               0x0005b718   Section      340  daddsub_clz.o(x$fpl$dadd)
    _dadd1                                   0x0005b728   ARM Code       0  daddsub_clz.o(x$fpl$dadd)
    x$fpl$dcheck1                            0x0005b86c   Section       16  dcheck1.o(x$fpl$dcheck1)
    x$fpl$dcmpinf                            0x0005b87c   Section       28  dcmpi.o(x$fpl$dcmpinf)
    x$fpl$ddiv                               0x0005b898   Section      720  ddiv.o(x$fpl$ddiv)
    ddiv_entry                               0x0005b8a0   ARM Code       0  ddiv.o(x$fpl$ddiv)
    x$fpl$deqf                               0x0005bb68   Section      148  deqf.o(x$fpl$deqf)
    x$fpl$dfix                               0x0005bbfc   Section      112  dfix.o(x$fpl$dfix)
    x$fpl$dflt                               0x0005bc6c   Section       52  dflt_clz.o(x$fpl$dflt)
    x$fpl$dfltu                              0x0005bca0   Section       44  dflt_clz.o(x$fpl$dfltu)
    x$fpl$dleqf                              0x0005bccc   Section      148  dleqf.o(x$fpl$dleqf)
    x$fpl$dmul                               0x0005bd60   Section      376  dmul.o(x$fpl$dmul)
    x$fpl$dnaninf                            0x0005bed8   Section      184  dnaninf.o(x$fpl$dnaninf)
    x$fpl$dretinf                            0x0005bf90   Section       16  dretinf.o(x$fpl$dretinf)
    x$fpl$drleqf                             0x0005bfa0   Section      140  drleqf.o(x$fpl$drleqf)
    x$fpl$drsb                               0x0005c02c   Section       24  daddsub_clz.o(x$fpl$drsb)
    x$fpl$dsub                               0x0005c044   Section      512  daddsub_clz.o(x$fpl$dsub)
    _dsub1                                   0x0005c054   ARM Code       0  daddsub_clz.o(x$fpl$dsub)
    x$fpl$f2d                                0x0005c244   Section      100  f2d.o(x$fpl$f2d)
    x$fpl$ffixu                              0x0005c2a8   Section       84  ffixu.o(x$fpl$ffixu)
    x$fpl$ffltu                              0x0005c2fc   Section       40  fflt_clz.o(x$fpl$ffltu)
    x$fpl$fmul                               0x0005c324   Section      256  fmul.o(x$fpl$fmul)
    x$fpl$fnaninf                            0x0005c424   Section      160  fnaninf.o(x$fpl$fnaninf)
    x$fpl$fretinf                            0x0005c4c4   Section       16  fretinf.o(x$fpl$fretinf)
    x$fpl$ieeestatus                         0x0005c4d4   Section        8  istatus.o(x$fpl$ieeestatus)
    x$fpl$printf1                            0x0005c4dc   Section        4  printf1.o(x$fpl$printf1)
    x$fpl$retnan                             0x0005c4e0   Section      116  retnan.o(x$fpl$retnan)
    x$fpl$scalbn                             0x0005c554   Section      104  scalbn.o(x$fpl$scalbn)
    x$fpl$scanf1                             0x0005c5bc   Section        4  scanf1.o(x$fpl$scanf1)
    x$fpl$scanf2                             0x0005c5c0   Section        8  scanf2.o(x$fpl$scanf2)
    x$fpl$trapveneer                         0x0005c5c8   Section       60  trapv.o(x$fpl$trapveneer)
    .constdata                               0x0005c604   Section       70  main.o(.constdata)
    x$fpl$usenofp                            0x0005c604   Section        0  usenofp.o(x$fpl$usenofp)
    .constdata                               0x0005c64c   Section      152  sdh.o(.constdata)
    .constdata                               0x0005c6e4   Section      285  guistandby.o(.constdata)
    .constdata                               0x0005c804   Section      386  meterdata.o(.constdata)
    .constdata                               0x0005c988   Section      366  guiselspace.o(.constdata)
    .constdata                               0x0005caf8   Section       90  guiseltime.o(.constdata)
    .constdata                               0x0005cb54   Section       93  guireaderinit.o(.constdata)
    .constdata                               0x0005cbb4   Section      330  guideposit.o(.constdata)
    .constdata                               0x0005cd00   Section       94  guidepositfail.o(.constdata)
    .constdata                               0x0005cd60   Section       92  guidepositok.o(.constdata)
    .constdata                               0x0005cdbc   Section       92  guireplacebp.o(.constdata)
    .constdata                               0x0005ce18   Section       89  guitester.o(.constdata)
    .constdata                               0x0005ce74   Section       95  guitesterkeypad.o(.constdata)
    .constdata                               0x0005ced4   Section       91  paralib.o(.constdata)
    .constdata                               0x0005cf30   Section       95  guifiledownload.o(.constdata)
    .constdata                               0x0005cf90   Section       87  guifree.o(.constdata)
    .constdata                               0x0005cfe8   Section       86  guioff.o(.constdata)
    .constdata                               0x0005d040   Section       70  powerdrv.o(.constdata)
    .constdata                               0x0005d088   Section      135  epddrv.o(.constdata)
    .constdata                               0x0005d110   Section      198  timelib.o(.constdata)
    _ytab                                    0x0005d110   Data          96  timelib.o(.constdata)
    .constdata                               0x0005d1d8   Section       71  ts2000drv.o(.constdata)
    .constdata                               0x0005d220   Section      140  fatfslib.o(.constdata)
    .constdata                               0x0005d2ac   Section      144  modemagent.o(.constdata)
    .constdata                               0x0005d33c   Section      186  tarifflib.o(.constdata)
    .constdata                               0x0005d3f8   Section       67  yaffs2drv.o(.constdata)
    .constdata                               0x0005d43c   Section      367  dataprocesslib.o(.constdata)
    .constdata                               0x0005d5ac   Section      737  fileagent.o(.constdata)
    .constdata                               0x0005d890   Section       79  flashdrvex.o(.constdata)
    .constdata                               0x0005d8e0   Section     1216  ccsbcs.o(.constdata)
    Tbl                                      0x0005d8e0   Data         256  ccsbcs.o(.constdata)
    tbl_lower                                0x0005d9e0   Data         480  ccsbcs.o(.constdata)
    tbl_upper                                0x0005dbc0   Data         480  ccsbcs.o(.constdata)
    .constdata                               0x0005dda0   Section      186  ff.o(.constdata)
    ExCvt                                    0x0005dda0   Data         128  ff.o(.constdata)
    LfnOfs                                   0x0005de20   Data          13  ff.o(.constdata)
    vst                                      0x0005de2e   Data          22  ff.o(.constdata)
    cst                                      0x0005de44   Data          22  ff.o(.constdata)
    .constdata                               0x0005de5a   Section        5  cjson.o(.constdata)
    firstByteMark                            0x0005de5a   Data           5  cjson.o(.constdata)
    .constdata                               0x0005de60   Section      497  quentelmodemlib.o(.constdata)
    .constdata                               0x0005e054   Section      242  mtdpart.o(.constdata)
    .constdata                               0x0005e148   Section      268  nand_base.o(.constdata)
    __func__                                 0x0005e148   Data          15  nand_base.o(.constdata)
    __func__                                 0x0005e157   Data          17  nand_base.o(.constdata)
    __func__                                 0x0005e168   Data          14  nand_base.o(.constdata)
    __func__                                 0x0005e176   Data          18  nand_base.o(.constdata)
    __func__                                 0x0005e188   Data          15  nand_base.o(.constdata)
    __func__                                 0x0005e197   Data          16  nand_base.o(.constdata)
    __func__                                 0x0005e1a7   Data          10  nand_base.o(.constdata)
    __func__                                 0x0005e1b1   Data          20  nand_base.o(.constdata)
    .constdata                               0x0005e254   Section       97  nand_bbt.o(.constdata)
    __func__                                 0x0005e254   Data          11  nand_bbt.o(.constdata)
    __func__                                 0x0005e25f   Data          17  nand_bbt.o(.constdata)
    .constdata                               0x0005e2b8   Section     1808  nand_ids.o(.constdata)
    .constdata                               0x0005e9c8   Section      148  yaffs_checkptrw.o(.constdata)
    .constdata                               0x0005ea5c   Section      256  yaffs_ecc.o(.constdata)
    column_parity_table                      0x0005ea5c   Data         256  yaffs_ecc.o(.constdata)
    .constdata                               0x0005eb5c   Section      592  yaffs_guts.o(.constdata)
    .constdata                               0x0005edac   Section      152  yaffs_malloc.o(.constdata)
    .constdata                               0x0005ee44   Section       91  yaffs_packedtags2.o(.constdata)
    .constdata                               0x0005eea0   Section      332  yaffs_verify.o(.constdata)
    block_state_name                         0x0005eea0   Data          40  yaffs_verify.o(.constdata)
    .constdata                               0x0005efec   Section       98  yaffs_yaffs1.o(.constdata)
    .constdata                               0x0005f050   Section      753  yaffs_yaffs2.o(.constdata)
    .constdata                               0x0005f344   Section      100  fmi_nand.o(.constdata)
    g_i32BCHAlgoIdx                          0x0005f344   Data          20  fmi_nand.o(.constdata)
    g_i32ParityNum                           0x0005f358   Data          80  fmi_nand.o(.constdata)
    .constdata                               0x0005f3a8   Section      484  osmisc.o(.constdata)
    .constdata                               0x0005f58c   Section       40  _printf_hex_int.o(.constdata)
    uc_hextab                                0x0005f58c   Data          20  _printf_hex_int.o(.constdata)
    lc_hextab                                0x0005f5a0   Data          20  _printf_hex_int.o(.constdata)
    .constdata                               0x0005f5b4   Section       17  __printf_flags_ss_wp.o(.constdata)
    maptable                                 0x0005f5b4   Data          17  __printf_flags_ss_wp.o(.constdata)
    .constdata                               0x0005f5c5   Section       12  _monlen.o(.constdata)
    .constdata                               0x0005f5d4   Section      148  bigflt0.o(.constdata)
    tenpwrs_x                                0x0005f5d4   Data          60  bigflt0.o(.constdata)
    tenpwrs_i                                0x0005f610   Data          64  bigflt0.o(.constdata)
    .conststring                             0x0005f668   Section        8  main.o(.conststring)
    .conststring                             0x0005f670   Section      102  meterdata.o(.conststring)
    .conststring                             0x0005f6d6   Section       11  guidrv.o(.conststring)
    .conststring                             0x0005f6e1   Section       13  powerdrv.o(.conststring)
    .conststring                             0x0005f6ee   Section       11  epddrv.o(.conststring)
    .conststring                             0x0005f6f9   Section       13  spacedrv.o(.conststring)
    .conststring                             0x0005f706   Section        9  fatfslib.o(.conststring)
    .conststring                             0x0005f70f   Section       15  photoagent.o(.conststring)
    .conststring                             0x0005f71e   Section       15  modemagent.o(.conststring)
    .conststring                             0x0005f72d   Section       86  dataprocesslib.o(.conststring)
    .conststring                             0x0005f783   Section       14  fileagent.o(.conststring)
    .conststring                             0x0005f791   Section       21  userdrv.o(.conststring)
    .conststring                             0x0005f7a6   Section      336  atcmdparser.o(.conststring)
    .conststring                             0x0005f8f6   Section      350  quentelmodemlib.o(.conststring)
    .conststring                             0x0005fa54   Section     1241  nand_ids.o(.conststring)
    .conststring                             0x0005ff2d   Section       75  yaffs_verify.o(.conststring)
    c$$dinf                                  0x0005ffa8   Section        8  fpconst.o(c$$dinf)
    locale$$data                             0x0005ffb0   Section      272  lc_ctype_c.o(locale$$data)
    __lcctype_c_name                         0x0005ffb4   Data           2  lc_ctype_c.o(locale$$data)
    __lcctype_c_start                        0x0005ffbc   Data           0  lc_ctype_c.o(locale$$data)
    locale$$data                             0x000600c0   Section       28  lc_numeric_c.o(locale$$data)
    __lcctype_c_end                          0x000600c0   Data           0  lc_ctype_c.o(locale$$data)
    __lcnum_c_name                           0x000600c4   Data           2  lc_numeric_c.o(locale$$data)
    __lcnum_c_start                          0x000600cc   Data           0  lc_numeric_c.o(locale$$data)
    __lcnum_c_point                          0x000600d8   Data           0  lc_numeric_c.o(locale$$data)
    __lcnum_c_thousands                      0x000600da   Data           0  lc_numeric_c.o(locale$$data)
    __lcnum_c_grouping                       0x000600db   Data           0  lc_numeric_c.o(locale$$data)
    .data                                    0x000600dc   Section       28  main.o(.data)
    __lcnum_c_end                            0x000600dc   Data           0  lc_numeric_c.o(locale$$data)
    sysBooted                                0x000600dc   Data           1  main.o(.data)
    mInitFunctionList                        0x000600e0   Data          24  main.o(.data)
    .data                                    0x000600f8   Section      500  sys.o(.data)
    .data                                    0x000602ec   Section       96  sys_timer.o(.data)
    month_seconds                            0x0006030c   Data          48  sys_timer.o(.data)
    .data                                    0x0006034c   Section       12  system_nuc970.o(.data)
    _IsInitMMUTable                          0x0006034d   Data           1  system_nuc970.o(.data)
    _MMUMappingMode                          0x00060350   Data           4  system_nuc970.o(.data)
    .data                                    0x00060358   Section      134  uart.o(.data)
    UARTTXBUFSIZE                            0x00060358   Data          44  uart.o(.data)
    UARTRXBUFSIZE                            0x00060384   Data          44  uart.o(.data)
    _uart_IrDATxReg                          0x000603b0   Data           4  uart.o(.data)
    _uart_IrDARxReg                          0x000603b4   Data           4  uart.o(.data)
    _uart_cDSRState0                         0x000603b8   Data           1  uart.o(.data)
    _uart_cDSRState1                         0x000603b9   Data           1  uart.o(.data)
    _uart_cDSRState2                         0x000603ba   Data           1  uart.o(.data)
    _uart_cDSRState3                         0x000603bb   Data           1  uart.o(.data)
    _uart_cDSRState4                         0x000603bc   Data           1  uart.o(.data)
    _uart_cDSRState5                         0x000603bd   Data           1  uart.o(.data)
    _uart_cDSRState6                         0x000603be   Data           1  uart.o(.data)
    _uart_cDSRState7                         0x000603bf   Data           1  uart.o(.data)
    _uart_cDSRState8                         0x000603c0   Data           1  uart.o(.data)
    _uart_cDSRState9                         0x000603c1   Data           1  uart.o(.data)
    _uart_cDSRState10                        0x000603c2   Data           1  uart.o(.data)
    _uart_cBIIState_0                        0x000603c3   Data           1  uart.o(.data)
    _uart_cBIIState_1                        0x000603c4   Data           1  uart.o(.data)
    _uart_cBIIState_2                        0x000603c5   Data           1  uart.o(.data)
    _uart_cBIIState_3                        0x000603c6   Data           1  uart.o(.data)
    _uart_cBIIState_4                        0x000603c7   Data           1  uart.o(.data)
    _uart_cBIIState_5                        0x000603c8   Data           1  uart.o(.data)
    _uart_cBIIState_6                        0x000603c9   Data           1  uart.o(.data)
    _uart_cBIIState_7                        0x000603ca   Data           1  uart.o(.data)
    _uart_cBIIState_8                        0x000603cb   Data           1  uart.o(.data)
    _uart_cBIIState_9                        0x000603cc   Data           1  uart.o(.data)
    _uart_cBIIState_10                       0x000603cd   Data           1  uart.o(.data)
    _uart_cCTSState0                         0x000603ce   Data           1  uart.o(.data)
    _uart_cCTSState1                         0x000603cf   Data           1  uart.o(.data)
    _uart_cCTSState2                         0x000603d0   Data           1  uart.o(.data)
    _uart_cCTSState3                         0x000603d1   Data           1  uart.o(.data)
    _uart_cCTSState4                         0x000603d2   Data           1  uart.o(.data)
    _uart_cCTSState5                         0x000603d3   Data           1  uart.o(.data)
    _uart_cCTSState6                         0x000603d4   Data           1  uart.o(.data)
    _uart_cCTSState7                         0x000603d5   Data           1  uart.o(.data)
    _uart_cCTSState8                         0x000603d6   Data           1  uart.o(.data)
    _uart_cCTSState9                         0x000603d7   Data           1  uart.o(.data)
    _uart_cCTSState10                        0x000603d8   Data           1  uart.o(.data)
    _uart_cFlowControlMode                   0x000603d9   Data           1  uart.o(.data)
    _uart_cHWTXStopped                       0x000603da   Data           1  uart.o(.data)
    _uart_cHWRXStopped                       0x000603db   Data           1  uart.o(.data)
    _uart_cSWTXStopped                       0x000603dc   Data           1  uart.o(.data)
    _uart_cSWRXStopped                       0x000603dd   Data           1  uart.o(.data)
    .data                                    0x000603e0   Section       40  gpio.o(.data)
    maskTbl                                  0x000603e0   Data          40  gpio.o(.data)
    .data                                    0x00060408   Section       88  rtc.o(.data)
    g_pfnRTCCallBack_Tick                    0x00060408   Data           4  rtc.o(.data)
    g_pfnRTCCallBack_Alarm                   0x0006040c   Data           4  rtc.o(.data)
    g_pfnRTCCallBack_PSWI                    0x00060410   Data           4  rtc.o(.data)
    g_pfnRTCCallBack_Relative_Alarm          0x00060414   Data           4  rtc.o(.data)
    g_u32RTC_Count                           0x00060418   Data           4  rtc.o(.data)
    g_chHourMode                             0x0006041c   Data           1  rtc.o(.data)
    g_bIsEnableTickInt                       0x0006041d   Data           1  rtc.o(.data)
    g_bIsEnableAlarmInt                      0x0006041e   Data           1  rtc.o(.data)
    g_u32Reg                                 0x00060420   Data           4  rtc.o(.data)
    g_u32Reg1                                0x00060424   Data           4  rtc.o(.data)
    g_u32hiYear                              0x00060428   Data           4  rtc.o(.data)
    g_u32loYear                              0x0006042c   Data           4  rtc.o(.data)
    g_u32hiMonth                             0x00060430   Data           4  rtc.o(.data)
    g_u32loMonth                             0x00060434   Data           4  rtc.o(.data)
    g_u32hiDay                               0x00060438   Data           4  rtc.o(.data)
    g_u32loDay                               0x0006043c   Data           4  rtc.o(.data)
    g_u32hiHour                              0x00060440   Data           4  rtc.o(.data)
    g_u32loHour                              0x00060444   Data           4  rtc.o(.data)
    g_u32hiMin                               0x00060448   Data           4  rtc.o(.data)
    g_u32loMin                               0x0006044c   Data           4  rtc.o(.data)
    g_u32hiSec                               0x00060450   Data           4  rtc.o(.data)
    g_u32loSec                               0x00060454   Data           4  rtc.o(.data)
    .data                                    0x00060460   Section       12  i2c.o(.data)
    xi2cSemaphore                            0x00060460   Data           8  i2c.o(.data)
    bNackValid                               0x00060468   Data           4  i2c.o(.data)
    .data                                    0x0006046c   Section       32  sdh.o(.data)
    .data                                    0x0006048c   Section        4  adc.o(.data)
    .data                                    0x00060490   Section       14  guistandby.o(.data)
    pGuiGetInterface                         0x00060490   Data           4  guistandby.o(.data)
    powerStatus                              0x00060494   Data           1  guistandby.o(.data)
    powerStatusFlag                          0x00060495   Data           1  guistandby.o(.data)
    tickStart                                0x00060498   Data           4  guistandby.o(.data)
    keyIgnoreFlag                            0x0006049c   Data           1  guistandby.o(.data)
    refreshType                              0x0006049d   Data           1  guistandby.o(.data)
    .data                                    0x000604a0   Section      380  guimanager.o(.data)
    guiInstanceStandby                       0x000604a0   Data          20  guimanager.o(.data)
    guiInstanceSelSpace                      0x000604b4   Data          20  guimanager.o(.data)
    guiInstanceSelTime                       0x000604c8   Data          20  guimanager.o(.data)
    guiInstanceReaderInit                    0x000604dc   Data          20  guimanager.o(.data)
    guiInstanceDeposit                       0x000604f0   Data          20  guimanager.o(.data)
    guiInstanceDepositOK                     0x00060504   Data          20  guimanager.o(.data)
    guiInstanceDepositFail                   0x00060518   Data          20  guimanager.o(.data)
    guiInstanceReplaceBP                     0x0006052c   Data          20  guimanager.o(.data)
    guiInstanceTester                        0x00060540   Data          20  guimanager.o(.data)
    guiInstanceTesterKeypad                  0x00060554   Data          20  guimanager.o(.data)
    guiInstanceFileDownload                  0x00060568   Data          20  guimanager.o(.data)
    guiInstanceFree                          0x0006057c   Data          20  guimanager.o(.data)
    guiInstanceOff                           0x00060590   Data          20  guimanager.o(.data)
    userGuiInstance                          0x000605a4   Data         112  guimanager.o(.data)
    pCurrentGuiInstance                      0x00060614   Data           4  guimanager.o(.data)
    xSemaphore                               0x00060618   Data           4  guimanager.o(.data)
    .data                                    0x0006061c   Section      136  meterdata.o(.data)
    routineItem                              0x0006061c   Data         100  meterdata.o(.data)
    meterDataPowerStatus                     0x00060680   Data           1  meterdata.o(.data)
    meterDataPowerCallabck                   0x00060684   Data          20  meterdata.o(.data)
    bayColorLocal                            0x00060698   Data           6  meterdata.o(.data)
    xMeterDataActionSemaphore                0x000606a0   Data           4  meterdata.o(.data)
    .data                                    0x000606a4   Section       20  guiselspace.o(.data)
    pGuiGetInterface                         0x000606a4   Data           4  guiselspace.o(.data)
    powerStatus                              0x000606a8   Data           1  guiselspace.o(.data)
    tickStart                                0x000606ac   Data           4  guiselspace.o(.data)
    selOriIndex                              0x000606b0   Data           1  guiselspace.o(.data)
    keyIgnoreFlag                            0x000606b1   Data           1  guiselspace.o(.data)
    refreshType                              0x000606b2   Data           1  guiselspace.o(.data)
    keyStart                                 0x000606b4   Data           4  guiselspace.o(.data)
    .data                                    0x000606b8   Section       20  guiseltime.o(.data)
    pGuiGetInterface                         0x000606b8   Data           4  guiseltime.o(.data)
    powerStatus                              0x000606bc   Data           1  guiseltime.o(.data)
    tickStart                                0x000606c0   Data           4  guiseltime.o(.data)
    keyIgnoreFlag                            0x000606c4   Data           1  guiseltime.o(.data)
    keyStart                                 0x000606c8   Data           4  guiseltime.o(.data)
    .data                                    0x000606cc   Section       13  guireaderinit.o(.data)
    pGuiGetInterface                         0x000606cc   Data           4  guireaderinit.o(.data)
    powerStatus                              0x000606d0   Data           1  guireaderinit.o(.data)
    tickStart                                0x000606d4   Data           4  guireaderinit.o(.data)
    keyIgnoreFlag                            0x000606d8   Data           1  guireaderinit.o(.data)
    .data                                    0x000606dc   Section       13  guideposit.o(.data)
    pGuiGetInterface                         0x000606dc   Data           4  guideposit.o(.data)
    powerStatus                              0x000606e0   Data           1  guideposit.o(.data)
    tickStart                                0x000606e4   Data           4  guideposit.o(.data)
    keyIgnoreFlag                            0x000606e8   Data           1  guideposit.o(.data)
    .data                                    0x000606ec   Section       13  guidepositfail.o(.data)
    pGuiGetInterface                         0x000606ec   Data           4  guidepositfail.o(.data)
    powerStatus                              0x000606f0   Data           1  guidepositfail.o(.data)
    tickStart                                0x000606f4   Data           4  guidepositfail.o(.data)
    keyIgnoreFlag                            0x000606f8   Data           1  guidepositfail.o(.data)
    .data                                    0x000606fc   Section       16  guidepositok.o(.data)
    pGuiGetInterface                         0x000606fc   Data           4  guidepositok.o(.data)
    powerStatus                              0x00060700   Data           1  guidepositok.o(.data)
    tickStart                                0x00060704   Data           4  guidepositok.o(.data)
    keyIgnoreFlag                            0x00060708   Data           1  guidepositok.o(.data)
    balanceMoney                             0x0006070a   Data           2  guidepositok.o(.data)
    .data                                    0x0006070c   Section       13  guireplacebp.o(.data)
    pGuiGetInterface                         0x0006070c   Data           4  guireplacebp.o(.data)
    powerStatus                              0x00060710   Data           1  guireplacebp.o(.data)
    tickStart                                0x00060714   Data           4  guireplacebp.o(.data)
    keyIgnoreFlag                            0x00060718   Data           1  guireplacebp.o(.data)
    .data                                    0x0006071c   Section       13  guitester.o(.data)
    pGuiGetInterface                         0x0006071c   Data           4  guitester.o(.data)
    powerStatus                              0x00060720   Data           1  guitester.o(.data)
    tickStart                                0x00060724   Data           4  guitester.o(.data)
    keyIgnoreFlag                            0x00060728   Data           1  guitester.o(.data)
    .data                                    0x0006072c   Section       13  guitesterkeypad.o(.data)
    pGuiGetInterface                         0x0006072c   Data           4  guitesterkeypad.o(.data)
    powerStatus                              0x00060730   Data           1  guitesterkeypad.o(.data)
    tickStart                                0x00060734   Data           4  guitesterkeypad.o(.data)
    keyIgnoreFlag                            0x00060738   Data           1  guitesterkeypad.o(.data)
    .data                                    0x0006073c   Section        8  paralib.o(.data)
    paraFileLoadFlag                         0x0006073c   Data           1  paralib.o(.data)
    xSemaphore                               0x00060740   Data           4  paralib.o(.data)
    .data                                    0x00060744   Section       13  guifiledownload.o(.data)
    pGuiGetInterface                         0x00060744   Data           4  guifiledownload.o(.data)
    powerStatus                              0x00060748   Data           1  guifiledownload.o(.data)
    tickStart                                0x0006074c   Data           4  guifiledownload.o(.data)
    keyIgnoreFlag                            0x00060750   Data           1  guifiledownload.o(.data)
    .data                                    0x00060754   Section       13  guifree.o(.data)
    pGuiGetInterface                         0x00060754   Data           4  guifree.o(.data)
    powerStatus                              0x00060758   Data           1  guifree.o(.data)
    tickStart                                0x0006075c   Data           4  guifree.o(.data)
    keyIgnoreFlag                            0x00060760   Data           1  guifree.o(.data)
    .data                                    0x00060764   Section       13  guioff.o(.data)
    pGuiGetInterface                         0x00060764   Data           4  guioff.o(.data)
    powerStatus                              0x00060768   Data           1  guioff.o(.data)
    tickStart                                0x0006076c   Data           4  guioff.o(.data)
    keyIgnoreFlag                            0x00060770   Data           1  guioff.o(.data)
    .data                                    0x00060774   Section       68  halinterface.o(.data)
    mKeyInterface                            0x00060774   Data           8  halinterface.o(.data)
    mTimerInterface                          0x0006077c   Data          16  halinterface.o(.data)
    mGuiInterface                            0x0006078c   Data          20  halinterface.o(.data)
    mTSReaderInterface                       0x000607a0   Data          24  halinterface.o(.data)
    .data                                    0x000607b8   Section       40  guidrv.o(.data)
    pTimerGetInterface                       0x000607b8   Data           4  guidrv.o(.data)
    pKeyGetInterface                         0x000607bc   Data           4  guidrv.o(.data)
    pGuiTimerCallbackFunc                    0x000607c0   Data           4  guidrv.o(.data)
    pGuiKeyCallbackFunc                      0x000607c4   Data           4  guidrv.o(.data)
    pUserGuiInstance                         0x000607c8   Data           4  guidrv.o(.data)
    guiDrvPowerCallabck                      0x000607cc   Data          20  guidrv.o(.data)
    .data                                    0x000607e0   Section       17  keydrv.o(.data)
    deviceInterfaceIndex                     0x000607e0   Data           2  keydrv.o(.data)
    pKeyHardwareInterface                    0x000607e4   Data           8  keydrv.o(.data)
    pKeyCallbackFunc                         0x000607ec   Data           4  keydrv.o(.data)
    keyDrvMode                               0x000607f0   Data           1  keydrv.o(.data)
    .data                                    0x000607f4   Section       56  powerdrv.o(.data)
    wakeupSource                             0x000607f5   Data           1  powerdrv.o(.data)
    wakeUpTime                               0x000607f8   Data           4  powerdrv.o(.data)
    powerDrvPowerCallabck                    0x000607fc   Data          20  powerdrv.o(.data)
    regCallbackIndex                         0x00060810   Data           4  powerdrv.o(.data)
    mWakeupTick                              0x00060814   Data           4  powerdrv.o(.data)
    mTotalWakeupTick                         0x00060818   Data           4  powerdrv.o(.data)
    threadWaitTime                           0x0006081c   Data           4  powerdrv.o(.data)
    xSemaphore                               0x00060820   Data           4  powerdrv.o(.data)
    REG_CLK_PCLKEN0Tmp                       0x00060824   Data           4  powerdrv.o(.data)
    REG_CLK_HCLKENTmp                        0x00060828   Data           4  powerdrv.o(.data)
    .data                                    0x0006082c   Section       32  timerdrv.o(.data)
    threadWaitTime                           0x0006082c   Data          12  timerdrv.o(.data)
    threadWaitTimeBackup                     0x00060838   Data          12  timerdrv.o(.data)
    mTimerCallbackFunc                       0x00060844   Data           4  timerdrv.o(.data)
    xRunSemaphore                            0x00060848   Data           4  timerdrv.o(.data)
    .data                                    0x0006084c   Section       16  cardreader.o(.data)
    threadWaitTime                           0x0006084c   Data           4  cardreader.o(.data)
    cardReaderBootedStatus                   0x00060850   Data           1  cardreader.o(.data)
    pTSReaderInterface                       0x00060854   Data           4  cardreader.o(.data)
    xSemaphore                               0x00060858   Data           4  cardreader.o(.data)
    .data                                    0x0006085c   Section       72  epddrv.o(.data)
    waitTimeoutCounter                       0x0006085c   Data           4  epddrv.o(.data)
    threadBackLightWaitTime                  0x00060860   Data           4  epddrv.o(.data)
    epdDrvPowerCallabck                      0x00060864   Data          20  epddrv.o(.data)
    pEpdReinitCallbackFunc                   0x00060878   Data           4  epddrv.o(.data)
    hourTmp                                  0x0006087c   Data           1  epddrv.o(.data)
    minsTmp                                  0x0006087d   Data           1  epddrv.o(.data)
    yearTmp                                  0x00060880   Data           4  epddrv.o(.data)
    monthTmp                                 0x00060884   Data           4  epddrv.o(.data)
    dayTmp                                   0x00060888   Data           4  epddrv.o(.data)
    upperLinePositionInfo                    0x0006088c   Data          12  epddrv.o(.data)
    pSpiInterface                            0x00060898   Data           4  epddrv.o(.data)
    xSemaphore                               0x0006089c   Data           4  epddrv.o(.data)
    xBackLightSemaphore                      0x000608a0   Data           4  epddrv.o(.data)
    .data                                    0x000608a4   Section       52  spacedrv.o(.data)
    mSpaceStatus                             0x000608a4   Data           2  spacedrv.o(.data)
    threadWaitTime                           0x000608a8   Data           4  spacedrv.o(.data)
    spaceDrvPowerStatus                      0x000608ac   Data           1  spacedrv.o(.data)
    SpaceDrvPowerCallabck                    0x000608b0   Data          20  spacedrv.o(.data)
    pDistInterface                           0x000608c4   Data           4  spacedrv.o(.data)
    mSpaceDist                               0x000608c8   Data           8  spacedrv.o(.data)
    mSpaceCounter                            0x000608d0   Data           2  spacedrv.o(.data)
    xSemaphore                               0x000608d4   Data           4  spacedrv.o(.data)
    .data                                    0x000608d8   Section        4  timelib.o(.data)
    ptimeinfo                                0x000608d8   Data           4  timelib.o(.data)
    .data                                    0x000608dc   Section       60  ts2000drv.o(.data)
    pUartInterface                           0x000608dc   Data           4  ts2000drv.o(.data)
    read_ivn                                 0x000608e0   Data           8  ts2000drv.o(.data)
    read_cn                                  0x000608e8   Data           8  ts2000drv.o(.data)
    read_time                                0x000608f0   Data           8  ts2000drv.o(.data)
    data_cn                                  0x000608f8   Data           8  ts2000drv.o(.data)
    data_time                                0x00060900   Data           4  ts2000drv.o(.data)
    powerUpTick                              0x00060904   Data           4  ts2000drv.o(.data)
    checkReaderFlag                          0x00060908   Data           1  ts2000drv.o(.data)
    useCallBackFlag                          0x00060909   Data           1  ts2000drv.o(.data)
    utcTime                                  0x0006090c   Data           4  ts2000drv.o(.data)
    ptsreaderDepositResultCallback           0x00060910   Data           4  ts2000drv.o(.data)
    callBackFlag                             0x00060914   Data           1  ts2000drv.o(.data)
    callBackParaValue                        0x00060916   Data           2  ts2000drv.o(.data)
    .data                                    0x00060918   Section       19  fatfslib.o(.data)
    deviceInterfaceIndex                     0x00060918   Data           3  fatfslib.o(.data)
    _Path                                    0x0006091c   Data          12  fatfslib.o(.data)
    fatfsExistFlag                           0x00060928   Data           3  fatfslib.o(.data)
    .data                                    0x0006092c   Section       36  photoagent.o(.data)
    threadTakePhotoWaitTime                  0x0006092c   Data           4  photoagent.o(.data)
    photoAgentPowerStatus                    0x00060930   Data           1  photoagent.o(.data)
    photoAgentPowerCallabck                  0x00060934   Data          20  photoagent.o(.data)
    xTakePhotoSemaphore                      0x00060948   Data           4  photoagent.o(.data)
    photoCurrentTime                         0x0006094c   Data           4  photoagent.o(.data)
    .data                                    0x00060950   Section       20  jsoncmdlib.o(.data)
    statusRoot                               0x00060950   Data           4  jsoncmdlib.o(.data)
    bayArray                                 0x00060954   Data           4  jsoncmdlib.o(.data)
    bayValueArray                            0x00060958   Data           4  jsoncmdlib.o(.data)
    voltageArray                             0x0006095c   Data           4  jsoncmdlib.o(.data)
    depositArray                             0x00060960   Data           4  jsoncmdlib.o(.data)
    .data                                    0x00060964   Section       40  modemagent.o(.data)
    threadModemAgentWaitTime                 0x00060964   Data           4  modemagent.o(.data)
    errortimes                               0x00060968   Data           4  modemagent.o(.data)
    modemAgentPowerStatus                    0x0006096c   Data           1  modemagent.o(.data)
    modemAgentPowerStatusFlag                0x0006096d   Data           1  modemagent.o(.data)
    modemAgentPowerCallabck                  0x00060970   Data          20  modemagent.o(.data)
    xModemAgentSemaphore                     0x00060984   Data           4  modemagent.o(.data)
    xModemRoutineSemaphore                   0x00060988   Data           4  modemagent.o(.data)
    .data                                    0x0006098c   Section       16  tarifflib.o(.data)
    currentJsonTariffType                    0x0006098c   Data           4  tarifflib.o(.data)
    currentJsonTariffDayType                 0x00060990   Data           4  tarifflib.o(.data)
    currentTariffFileIndex                   0x00060994   Data           4  tarifflib.o(.data)
    tariffIndex                              0x00060998   Data           4  tarifflib.o(.data)
    .data                                    0x0006099c   Section        2  yaffs2drv.o(.data)
    mtpoint                                  0x0006099c   Data           2  yaffs2drv.o(.data)
    .data                                    0x000609a0   Section      172  dataprocesslib.o(.data)
    esfIndex                                 0x000609a0   Data           4  dataprocesslib.o(.data)
    processItem                              0x000609a4   Data         160  dataprocesslib.o(.data)
    needReloadFlag                           0x00060a44   Data           1  dataprocesslib.o(.data)
    xStatusDataQueue                         0x00060a48   Data           4  dataprocesslib.o(.data)
    .data                                    0x00060a4c   Section        4  loglib.o(.data)
    xSemaphore                               0x00060a4c   Data           4  loglib.o(.data)
    .data                                    0x00060a50   Section       24  leddrv.o(.data)
    pUartInterface                           0x00060a50   Data           4  leddrv.o(.data)
    threadWaitTime                           0x00060a54   Data           4  leddrv.o(.data)
    heartSendFlag                            0x00060a58   Data           1  leddrv.o(.data)
    ledSetFlag                               0x00060a59   Data           1  leddrv.o(.data)
    bayColorTmp                              0x00060a5a   Data           8  leddrv.o(.data)
    statusColorTmp                           0x00060a62   Data           1  leddrv.o(.data)
    xSemaphore                               0x00060a64   Data           4  leddrv.o(.data)
    .data                                    0x00060a68   Section       72  fileagent.o(.data)
    headerIndex                              0x00060a68   Data           4  fileagent.o(.data)
    endIndex                                 0x00060a6c   Data           4  fileagent.o(.data)
    threadWaitTime                           0x00060a70   Data           4  fileagent.o(.data)
    error                                    0x00060a74   Data           4  fileagent.o(.data)
    autoFormatCounter1                       0x00060a78   Data           4  fileagent.o(.data)
    autoFormatCounter2                       0x00060a7c   Data           4  fileagent.o(.data)
    faHeader                                 0x00060a80   Data           4  fileagent.o(.data)
    faEnd                                    0x00060a84   Data           4  fileagent.o(.data)
    fileAgentPowerStatus                     0x00060a88   Data           1  fileagent.o(.data)
    fileAgentPowerStatusFlag                 0x00060a89   Data           1  fileagent.o(.data)
    fileAgentPowerCallabck                   0x00060a8c   Data          20  fileagent.o(.data)
    xSemaphore                               0x00060aa0   Data           4  fileagent.o(.data)
    xAddDataMutex                            0x00060aa4   Data           4  fileagent.o(.data)
    xFatfsReadWriteMutex                     0x00060aa8   Data           4  fileagent.o(.data)
    xYaffs2ReadWriteMutex                    0x00060aac   Data           4  fileagent.o(.data)
    .data                                    0x00060ab0   Section       24  userdrv.o(.data)
    mUserDrvInitFunctionList                 0x00060ab0   Data          24  userdrv.o(.data)
    .data                                    0x00060ac8   Section      388  interface.o(.data)
    mUartInterface                           0x00060ac8   Data         196  interface.o(.data)
    mSpiInterface                            0x00060b8c   Data          48  interface.o(.data)
    mI2cInterface                            0x00060bbc   Data          20  interface.o(.data)
    mKeyHardwareInterface                    0x00060bd0   Data          16  interface.o(.data)
    mDistInterface                           0x00060be0   Data           8  interface.o(.data)
    mCommunicationInterface                  0x00060be8   Data          16  interface.o(.data)
    mFatfsHardwareInterface                  0x00060bf8   Data          84  interface.o(.data)
    .data                                    0x00060c4c   Section       17  buzzerdrv.o(.data)
    threadWaitTime                           0x00060c4c   Data           4  buzzerdrv.o(.data)
    xSemaphore                               0x00060c50   Data           4  buzzerdrv.o(.data)
    playTime                                 0x00060c54   Data           4  buzzerdrv.o(.data)
    playDelayTime                            0x00060c58   Data           4  buzzerdrv.o(.data)
    playCounter                              0x00060c5c   Data           1  buzzerdrv.o(.data)
    .data                                    0x00060c60   Section       24  batterydrv.o(.data)
    threadWaitTime                           0x00060c60   Data           4  batterydrv.o(.data)
    saveIndex                                0x00060c64   Data           1  batterydrv.o(.data)
    enableTestBattery                        0x00060c65   Data           1  batterydrv.o(.data)
    xActionSemaphore                         0x00060c68   Data           4  batterydrv.o(.data)
    voltageValue                             0x00060c6c   Data           8  batterydrv.o(.data)
    batteryStatus                            0x00060c74   Data           2  batterydrv.o(.data)
    batteryStatusTmp                         0x00060c76   Data           2  batterydrv.o(.data)
    .data                                    0x00060c78   Section       16  dipdrv.o(.data)
    threadWaitTime                           0x00060c78   Data           4  dipdrv.o(.data)
    prevScreenId                             0x00060c7c   Data           4  dipdrv.o(.data)
    xActionSemaphore                         0x00060c80   Data           4  dipdrv.o(.data)
    pKeyHardwareCallbackFunc                 0x00060c84   Data           4  dipdrv.o(.data)
    .data                                    0x00060c88   Section        4  rs232commdrv.o(.data)
    pUartInterface                           0x00060c88   Data           4  rs232commdrv.o(.data)
    .data                                    0x00060c8c   Section       20  flashdrvex.o(.data)
    pSpiInterface                            0x00060c8c   Data           4  flashdrvex.o(.data)
    xSemaphore                               0x00060c90   Data           4  flashdrvex.o(.data)
    existFlag                                0x00060c94   Data           2  flashdrvex.o(.data)
    errorTimes                               0x00060c98   Data           8  flashdrvex.o(.data)
    .data                                    0x00060ca0   Section        8  sr04tdrv.o(.data)
    distValue                                0x00060ca0   Data           8  sr04tdrv.o(.data)
    .data                                    0x00060ca8   Section       40  nt066edrv.o(.data)
    threadWaitTime                           0x00060ca8   Data           4  nt066edrv.o(.data)
    enableTestNT066E                         0x00060cac   Data           1  nt066edrv.o(.data)
    keyDownFlag                              0x00060cad   Data           8  nt066edrv.o(.data)
    pI2cInterface                            0x00060cb8   Data           4  nt066edrv.o(.data)
    pKeyHardwareCallbackFunc                 0x00060cbc   Data           4  nt066edrv.o(.data)
    xNT066ESemaphore                         0x00060cc0   Data           4  nt066edrv.o(.data)
    intTimes                                 0x00060cc4   Data           4  nt066edrv.o(.data)
    rErrTimes                                0x00060cc8   Data           4  nt066edrv.o(.data)
    wErrTimes                                0x00060ccc   Data           4  nt066edrv.o(.data)
    .data                                    0x00060cd0   Section        3  ff.o(.data)
    Fsid                                     0x00060cd0   Data           2  ff.o(.data)
    CurrVol                                  0x00060cd2   Data           1  ff.o(.data)
    .data                                    0x00060cd4   Section       12  cjson.o(.data)
    global_ep                                0x00060cd4   Data           4  cjson.o(.data)
    cJSON_malloc                             0x00060cd8   Data           4  cjson.o(.data)
    cJSON_free                               0x00060cdc   Data           4  cjson.o(.data)
    .data                                    0x00060ce0   Section      380  atcmdparser.o(.data)
    cmdList                                  0x00060ce4   Data         216  atcmdparser.o(.data)
    targetCmdItemOK                          0x00060dbc   Data          12  atcmdparser.o(.data)
    targetCmdItemError                       0x00060dc8   Data          12  atcmdparser.o(.data)
    targetCmdItemCMEError                    0x00060dd4   Data          12  atcmdparser.o(.data)
    targetCmdItemATCmd                       0x00060de0   Data          12  atcmdparser.o(.data)
    targetCmdItemConnect                     0x00060dec   Data          12  atcmdparser.o(.data)
    targetCmdItemWebPostGetData              0x00060df8   Data          12  atcmdparser.o(.data)
    targetCmdItemFtpGetData                  0x00060e04   Data          12  atcmdparser.o(.data)
    targetCmdList                            0x00060e10   Data          20  atcmdparser.o(.data)
    webPostTargetCmdList                     0x00060e24   Data          20  atcmdparser.o(.data)
    ftpCmdList                               0x00060e38   Data          20  atcmdparser.o(.data)
    currentCmdType                           0x00060e4c   Data           2  atcmdparser.o(.data)
    cmdDataTmpIndex                          0x00060e50   Data           4  atcmdparser.o(.data)
    dataTempBufferLen                        0x00060e54   Data           4  atcmdparser.o(.data)
    dataTempBufferLen2                       0x00060e58   Data           4  atcmdparser.o(.data)
    .data                                    0x00060e5c   Section     1274  quentelmodemlib.o(.data)
    pUartInterface                           0x00060e5c   Data           4  quentelmodemlib.o(.data)
    cmdActionBreakFlag                       0x00060e60   Data           1  quentelmodemlib.o(.data)
    firstTimeCmd                             0x00060e61   Data           1  quentelmodemlib.o(.data)
    nullModemCmdRegAction                    0x00060e62   Data          16  quentelmodemlib.o(.data)
    flowCtlOnCmdRegAction                    0x00060e72   Data          16  quentelmodemlib.o(.data)
    echooffCmdRegAction                      0x00060e82   Data          16  quentelmodemlib.o(.data)
    existCmdRegAction                        0x00060e92   Data          16  quentelmodemlib.o(.data)
    regCmdRegAction                          0x00060ea2   Data          16  quentelmodemlib.o(.data)
    gattCmdRegAction                         0x00060eb2   Data          16  quentelmodemlib.o(.data)
    gregCmdRegAction                         0x00060ec2   Data          16  quentelmodemlib.o(.data)
    contextSettingCmdRegAction               0x00060ed2   Data          16  quentelmodemlib.o(.data)
    connectingCmdRegAction                   0x00060ee2   Data          16  quentelmodemlib.o(.data)
    disconnectCmdRegAction                   0x00060ef2   Data          16  quentelmodemlib.o(.data)
    queryConnectCmdRegAction                 0x00060f02   Data          16  quentelmodemlib.o(.data)
    dialupStageItem                          0x00060f14   Data         312  quentelmodemlib.o(.data)
    ftpSetPDPCmdRegAction                    0x0006104c   Data          16  quentelmodemlib.o(.data)
    ftpSetUserInfoCmdRegAction               0x0006105c   Data          16  quentelmodemlib.o(.data)
    ftpSetFileTypeCmdRegAction               0x0006106c   Data          16  quentelmodemlib.o(.data)
    ftpSetTransferModeCmdRegAction           0x0006107c   Data          16  quentelmodemlib.o(.data)
    ftpSetTimeoutCmdRegAction                0x0006108c   Data          16  quentelmodemlib.o(.data)
    ftpConnectingCmdRegAction                0x0006109c   Data          16  quentelmodemlib.o(.data)
    ftpDisconnectCmdRegAction                0x000610ac   Data          16  quentelmodemlib.o(.data)
    ftpQueryConnectedPDPCmdRegAction         0x000610bc   Data          16  quentelmodemlib.o(.data)
    ftpClientStageItem                       0x000610cc   Data         264  quentelmodemlib.o(.data)
    webSetUrlInfoCmdRegAction                0x000611d4   Data          16  quentelmodemlib.o(.data)
    webSetUrlInfoCmdItem                     0x000611e4   Data          16  quentelmodemlib.o(.data)
    webSetUrlContainCmdRegAction             0x000611f4   Data          16  quentelmodemlib.o(.data)
    webSetUrlContainCmdItem                  0x00061204   Data          16  quentelmodemlib.o(.data)
    webSetPostInfoCmdRegAction               0x00061214   Data          16  quentelmodemlib.o(.data)
    webSetPostInfoCmdItem                    0x00061224   Data          16  quentelmodemlib.o(.data)
    webSetPostContainCmdRegAction            0x00061234   Data          16  quentelmodemlib.o(.data)
    webSetPostContainCmdItem                 0x00061244   Data          16  quentelmodemlib.o(.data)
    webGetPostContainCmdRegAction            0x00061254   Data          16  quentelmodemlib.o(.data)
    webGetPostContainCmdItem                 0x00061264   Data          16  quentelmodemlib.o(.data)
    ftpSendInitCmdRegAction                  0x00061274   Data          16  quentelmodemlib.o(.data)
    ftpSendInitCmdItem                       0x00061284   Data          16  quentelmodemlib.o(.data)
    ftpSendDataCmdRegAction                  0x00061294   Data          16  quentelmodemlib.o(.data)
    ftpSendDataCmdItem                       0x000612a4   Data          16  quentelmodemlib.o(.data)
    ftpChDirCmdRegAction                     0x000612b4   Data          16  quentelmodemlib.o(.data)
    ftpChDirCmdItem                          0x000612c4   Data          16  quentelmodemlib.o(.data)
    ftpMkDirCmdRegAction                     0x000612d4   Data          16  quentelmodemlib.o(.data)
    ftpMkDirCmdItem                          0x000612e4   Data          16  quentelmodemlib.o(.data)
    ftpGetDataCmdRegAction                   0x000612f4   Data          16  quentelmodemlib.o(.data)
    ftpGetDataCmdItem                        0x00061304   Data          16  quentelmodemlib.o(.data)
    ftpCloseCmdRegAction                     0x00061314   Data          16  quentelmodemlib.o(.data)
    ftpCloseCmdItem                          0x00061324   Data          16  quentelmodemlib.o(.data)
    networkQueryCsqCmdRegAction              0x00061334   Data          16  quentelmodemlib.o(.data)
    networkQueryCsqCmdItem                   0x00061344   Data          16  quentelmodemlib.o(.data)
    currentDialupStageIndex                  0x00061354   Data           1  quentelmodemlib.o(.data)
    currentFtpStageIndex                     0x00061355   Data           1  quentelmodemlib.o(.data)
    .data                                    0x00061358   Section        8  mtdpart.o(.data)
    .data                                    0x00061360   Section       16  nand.o(.data)
    dev_name                                 0x00061364   Data           8  nand.o(.data)
    total_nand_size                          0x0006136c   Data           4  nand.o(.data)
    .data                                    0x00061370   Section       16  nand_bbt.o(.data)
    scan_ff_pattern                          0x00061370   Data           2  nand_bbt.o(.data)
    scan_agand_pattern                       0x00061372   Data           6  nand_bbt.o(.data)
    bbt_pattern                              0x00061378   Data           4  nand_bbt.o(.data)
    mirror_pattern                           0x0006137c   Data           4  nand_bbt.o(.data)
    .data                                    0x00061380   Section       32  yaffs_malloc.o(.data)
    _pCurrent                                0x00061388   Data           4  yaffs_malloc.o(.data)
    _FreeMemorySize                          0x0006138c   Data           4  yaffs_malloc.o(.data)
    _MemoryPoolBase                          0x00061394   Data           4  yaffs_malloc.o(.data)
    _MemoryPoolEnd                           0x00061398   Data           4  yaffs_malloc.o(.data)
    yaffs_errno                              0x0006139c   Data           4  yaffs_malloc.o(.data)
    .data                                    0x000613a0   Section        8  yaffs_tagscompat.o(.data)
    init                                     0x000613a0   Data           4  yaffs_tagscompat.o(.data)
    init                                     0x000613a4   Data           4  yaffs_tagscompat.o(.data)
    .data                                    0x000613a8   Section        4  yaffs_verify.o(.data)
    yaffs_free_verification_failures         0x000613a8   Data           4  yaffs_verify.o(.data)
    .data                                    0x000613ac   Section        8  yaffs_yaffs2.o(.data)
    .data                                    0x000613b4   Section       28  yaffsfs.o(.data)
    yaffsfs_handlesInitialised               0x000613c0   Data           4  yaffsfs.o(.data)
    dev_iterator                             0x000613c4   Data           4  yaffsfs.o(.data)
    search_contexts                          0x000613c8   Data           8  yaffsfs.o(.data)
    .data                                    0x000613d0   Section        4  fmi_nand.o(.data)
    .data                                    0x000613d4   Section       60  tasks.o(.data)
    uxDeletedTasksWaitingCleanUp             0x000613d8   Data           4  tasks.o(.data)
    uxCurrentNumberOfTasks                   0x000613dc   Data           4  tasks.o(.data)
    xTickCount                               0x000613e0   Data           4  tasks.o(.data)
    uxTopReadyPriority                       0x000613e4   Data           4  tasks.o(.data)
    xSchedulerRunning                        0x000613e8   Data           4  tasks.o(.data)
    uxPendedTicks                            0x000613ec   Data           4  tasks.o(.data)
    xYieldPending                            0x000613f0   Data           4  tasks.o(.data)
    xNumOfOverflows                          0x000613f4   Data           4  tasks.o(.data)
    uxTaskNumber                             0x000613f8   Data           4  tasks.o(.data)
    xNextTaskUnblockTime                     0x000613fc   Data           4  tasks.o(.data)
    xIdleTaskHandle                          0x00061400   Data           4  tasks.o(.data)
    uxSchedulerSuspended                     0x00061404   Data           4  tasks.o(.data)
    pxDelayedTaskList                        0x00061408   Data           4  tasks.o(.data)
    pxOverflowDelayedTaskList                0x0006140c   Data           4  tasks.o(.data)
    .data                                    0x00061410   Section       24  heap_4.o(.data)
    pxEnd                                    0x00061410   Data           4  heap_4.o(.data)
    xFreeBytesRemaining                      0x00061414   Data           4  heap_4.o(.data)
    xMinimumEverFreeBytesRemaining           0x00061418   Data           4  heap_4.o(.data)
    xBlockAllocatedBit                       0x0006141c   Data           4  heap_4.o(.data)
    xStart                                   0x00061420   Data           8  heap_4.o(.data)
    .data                                    0x00061428   Section        4  port.o(.data)
    .bss                                     0x0006142c   Section      320  sys_timer.o(.bss)
    .bss                                     0x00064000   Section    147456  system_nuc970.o(.bss)
    _mmuCoarsePageTable                      0x00068000   Data       65536  system_nuc970.o(.bss)
    _mmuCoarsePageTable_NonCache             0x00078000   Data       65536  system_nuc970.o(.bss)
    .bss                                     0x00088000   Section      572  uart.o(.bss)
    UART_DEV                                 0x00088000   Data         528  uart.o(.bss)
    xuartSemaphore                           0x00088210   Data          44  uart.o(.bss)
    .bss                                     0x0008823c   Section      164  gpio.o(.bss)
    gpioCfg                                  0x0008823c   Data         164  gpio.o(.bss)
    .bss                                     0x000882e0   Section       16  spi.o(.bss)
    spi_device                               0x000882e0   Data          16  spi.o(.bss)
    .bss                                     0x000882f0   Section      976  i2c.o(.bss)
    i2c_device                               0x000882f0   Data         976  i2c.o(.bss)
    .bss                                     0x00089000   Section      560  sdh.o(.bss)
    .bss                                     0x00089230   Section     1160  adc.o(.bss)
    adcHandler                               0x00089230   Data        1160  adc.o(.bss)
    .bss                                     0x000896b8   Section     3091  meterdata.o(.bss)
    meterData                                0x000896b8   Data        2836  meterdata.o(.bss)
    currentDCFFileName                       0x0008a1cc   Data         255  meterdata.o(.bss)
    .bss                                     0x0008a2cb   Section      627  paralib.o(.bss)
    meterPara                                0x0008a2cb   Data         124  paralib.o(.bss)
    meterStorageData                         0x0008a347   Data         503  paralib.o(.bss)
    .bss                                     0x0008a540   Section       40  powerdrv.o(.bss)
    mPowerCallbackFunc                       0x0008a540   Data          40  powerdrv.o(.bss)
    .bss                                     0x0008a568   Section       12  timerdrv.o(.bss)
    xSemaphore                               0x0008a568   Data          12  timerdrv.o(.bss)
    .bss                                     0x0008a574   Section      976  epddrv.o(.bss)
    PositionAllItemInfo                      0x0008a574   Data         244  epddrv.o(.bss)
    mBannerPositionInfo                      0x0008a668   Data          88  epddrv.o(.bss)
    mBannerLinePositionInfo                  0x0008a6c0   Data         100  epddrv.o(.bss)
    mContainPositionInfo                     0x0008a724   Data          76  epddrv.o(.bss)
    mContainNumberPositionInfo               0x0008a770   Data          76  epddrv.o(.bss)
    mDepositTimeAllPositionInfo              0x0008a7bc   Data         292  epddrv.o(.bss)
    PositionDeviceIDInfo                     0x0008a8e0   Data         100  epddrv.o(.bss)
    .bss                                     0x0008a944   Section       88  timelib.o(.bss)
    br_time                                  0x0008a944   Data          44  timelib.o(.bss)
    timeinfo                                 0x0008a970   Data          44  timelib.o(.bss)
    .bss                                     0x0008a99c   Section     1228  ts2000drv.o(.bss)
    data_icd                                 0x0008a99c   Data         512  ts2000drv.o(.bss)
    data_mn                                  0x0008ab9c   Data          16  ts2000drv.o(.bss)
    rx_buff                                  0x0008abac   Data         500  ts2000drv.o(.bss)
    rxTemp                                   0x0008ada0   Data         128  ts2000drv.o(.bss)
    unix_Time                                0x0008ae20   Data          24  ts2000drv.o(.bss)
    sCurTime                                 0x0008ae38   Data          48  ts2000drv.o(.bss)
    .bss                                     0x0008ae68   Section    12468  fatfslib.o(.bss)
    pFatfsHardwareInterface                  0x0008ae68   Data          12  fatfslib.o(.bss)
    _FatfsVol                                0x0008ae74   Data       12456  fatfslib.o(.bss)
    .bss                                     0x0008df1c   Section     4149  tarifflib.o(.bss)
    tariffEffectiveDate                      0x0008df1c   Data          12  tarifflib.o(.bss)
    jsonTariff                               0x0008df28   Data        3372  tarifflib.o(.bss)
    tariffFileName                           0x0008ec54   Data         765  tarifflib.o(.bss)
    .bss                                     0x0008ef51   Section      255  loglib.o(.bss)
    currentLogFileName                       0x0008ef51   Data         255  loglib.o(.bss)
    .bss                                     0x0008f050   Section    67072  fileagent.o(.bss)
    fileAgentDataItem                        0x0008f050   Data       67072  fileagent.o(.bss)
    .bss                                     0x0009f650   Section       16  uart1drv.o(.bss)
    param                                    0x0009f650   Data          16  uart1drv.o(.bss)
    .bss                                     0x0009f660   Section       16  uart2drv.o(.bss)
    param                                    0x0009f660   Data          16  uart2drv.o(.bss)
    .bss                                     0x0009f670   Section       16  uart3drv.o(.bss)
    param                                    0x0009f670   Data          16  uart3drv.o(.bss)
    .bss                                     0x0009f680   Section       16  uart4drv.o(.bss)
    param                                    0x0009f680   Data          16  uart4drv.o(.bss)
    .bss                                     0x0009f690   Section       16  uart7drv.o(.bss)
    param                                    0x0009f690   Data          16  uart7drv.o(.bss)
    .bss                                     0x0009f6a0   Section       16  uart8drv.o(.bss)
    param                                    0x0009f6a0   Data          16  uart8drv.o(.bss)
    .bss                                     0x0009f6b0   Section       16  uart10drv.o(.bss)
    param                                    0x0009f6b0   Data          16  uart10drv.o(.bss)
    .bss                                     0x0009f6c0   Section       56  batterydrv.o(.bss)
    adcValue                                 0x0009f6c0   Data          56  batterydrv.o(.bss)
    .bss                                     0x0009f6f8   Section    24632  flashdrvex.o(.bss)
    .bss                                     0x000a5740   Section    12300  diskio.o(.bss)
    fatfs_win_buff_pool                      0x000a5740   Data       12288  diskio.o(.bss)
    fatfs_win_buff                           0x000a8740   Data          12  diskio.o(.bss)
    .bss                                     0x000a874c   Section       12  ff.o(.bss)
    FatFs                                    0x000a874c   Data          12  ff.o(.bss)
    .bss                                     0x000a8758   Section       15  cjson.o(.bss)
    version                                  0x000a8758   Data          15  cjson.o(.bss)
    .bss                                     0x000a8767   Section    2105344  atcmdparser.o(.bss)
    dataTempBuffer                           0x000a8767   Data       1048576  atcmdparser.o(.bss)
    dataTempBuffer2                          0x001a8767   Data       1048576  atcmdparser.o(.bss)
    cmdDataTmp                               0x002a8767   Data        4096  atcmdparser.o(.bss)
    cmdData                                  0x002a9767   Data        4096  atcmdparser.o(.bss)
    .bss                                     0x002aa767   Section     4096  quentelmodemlib.o(.bss)
    .bss                                     0x002ab768   Section      128  mtdcore.o(.bss)
    .bss                                     0x002ab7e8   Section      472  nand.o(.bss)
    nand_chip                                0x002ab898   Data         296  nand.o(.bss)
    .bss                                     0x002ab9c0   Section     2336  nand_base.o(.bss)
    nand_oob_8                               0x002ab9c0   Data         584  nand_base.o(.bss)
    nand_oob_16                              0x002abc08   Data         584  nand_base.o(.bss)
    nand_oob_64                              0x002abe50   Data         584  nand_base.o(.bss)
    nand_oob_128                             0x002ac098   Data         584  nand_base.o(.bss)
    .bss                                     0x002ac2e0   Section      180  nand_bbt.o(.bss)
    agand_flashbased                         0x002ac2e0   Data          36  nand_bbt.o(.bss)
    bbt_main_descr                           0x002ac304   Data          36  nand_bbt.o(.bss)
    bbt_mirror_descr                         0x002ac328   Data          36  nand_bbt.o(.bss)
    bbt_main_no_bbt_descr                    0x002ac34c   Data          36  nand_bbt.o(.bss)
    bbt_mirror_no_bbt_descr                  0x002ac370   Data          36  nand_bbt.o(.bss)
    .bss                                     0x002ac400   Section    4194304  yaffs_malloc.o(.bss)
    .bss                                     0x006ac400   Section       32  yaffs_tagscompat.o(.bss)
    spare_ff                                 0x006ac400   Data          16  yaffs_tagscompat.o(.bss)
    spare_ff                                 0x006ac410   Data          16  yaffs_tagscompat.o(.bss)
    .bss                                     0x006ac420   Section    13840  yaffsfs.o(.bss)
    yaffsfs_dsc                              0x006ac420   Data       11040  yaffsfs.o(.bss)
    yaffsfs_inode                            0x006aef40   Data         800  yaffsfs.o(.bss)
    yaffsfs_fd                               0x006af260   Data        1600  yaffsfs.o(.bss)
    yaffsfs_handle                           0x006af8a0   Data         400  yaffsfs.o(.bss)
    .bss                                     0x006afa30   Section     1072  fmi_nand.o(.bss)
    nuc970_nand_oob                          0x006afc18   Data         584  fmi_nand.o(.bss)
    .bss                                     0x006afe60   Section      420  tasks.o(.bss)
    pxReadyTasksLists                        0x006afe60   Data         320  tasks.o(.bss)
    xDelayedTaskList1                        0x006affa0   Data          20  tasks.o(.bss)
    xDelayedTaskList2                        0x006affb4   Data          20  tasks.o(.bss)
    xPendingReadyList                        0x006affc8   Data          20  tasks.o(.bss)
    xTasksWaitingTermination                 0x006affdc   Data          20  tasks.o(.bss)
    xSuspendedTaskList                       0x006afff0   Data          20  tasks.o(.bss)
    .bss                                     0x006b0004   Section    16777216  heap_4.o(.bss)
    ucHeap                                   0x006b0004   Data       16777216  heap_4.o(.bss)
    .bss                                     0x016b0004   Section        4  rt_heap_descriptor.o(.bss)
    __rt_heap_descriptor_data                0x016b0004   Data           4  rt_heap_descriptor.o(.bss)
    .bss                                     0x016b0008   Section        4  rt_errno_addr.o(.bss)
    __aeabi_errno_addr_data                  0x016b0008   Data           4  rt_errno_addr.o(.bss)
    .bss                                     0x016b000c   Section       20  rt_locale.o(.bss)
    __rt_locale_data                         0x016b000c   Data          20  rt_locale.o(.bss)

    Global Symbols

    Symbol Name                              Value     Ov Type        Size  Object(Section)

    BuildAttributes$$THM_ISAv2$ARM_ISAv5$E$P$J$S$PE$A:L22$X:L11$S22$IEEE1$IW$USESV6$~STKCKD$USESV7$~SHL$OTIME$ROPI$IEEEX$EBA8$UX$STANDARDLIB$REQ8$EABIv2 0x00000000   Number         0  anon$$obj.o ABSOLUTE
    Vector_Table                             0x00000000   ARM Code       0  startup_nuc970.o(NUC_INIT)
    __ARM_use_no_argv                        0x00000000   Number         0  main.o ABSOLUTE
    _printf_flags                            0x00000000   Number         0  printf_stubs.o ABSOLUTE
    _printf_return_value                     0x00000000   Number         0  printf_stubs.o ABSOLUTE
    _printf_sizespec                         0x00000000   Number         0  printf_stubs.o ABSOLUTE
    _printf_widthprec                        0x00000000   Number         0  printf_stubs.o ABSOLUTE
    __ARM_exceptions_init                     - Undefined Weak Reference
    __alloca_initialize                       - Undefined Weak Reference
    __cpp_initialize__aeabi_                  - Undefined Weak Reference
    __cxa_finalize                            - Undefined Weak Reference
    __sigvec_lookup                           - Undefined Weak Reference
    __user_heap_extent                        - Undefined Weak Reference
    _atexit_init                              - Undefined Weak Reference
    _call_atexit_fns                          - Undefined Weak Reference
    _clock_init                               - Undefined Weak Reference
    _fp_trap_init                             - Undefined Weak Reference
    _fp_trap_shutdown                         - Undefined Weak Reference
    _get_lc_collate                           - Undefined Weak Reference
    _get_lc_monetary                          - Undefined Weak Reference
    _get_lc_time                              - Undefined Weak Reference
    _getenv_init                              - Undefined Weak Reference
    _handle_redirection                       - Undefined Weak Reference
    _initio                                   - Undefined Weak Reference
    _mutex_acquire                            - Undefined Weak Reference
    _mutex_free                               - Undefined Weak Reference
    _mutex_release                            - Undefined Weak Reference
    _printf_mbtowc                            - Undefined Weak Reference
    _printf_truncate_signed                   - Undefined Weak Reference
    _printf_truncate_unsigned                 - Undefined Weak Reference
    _rand_init                                - Undefined Weak Reference
    _signal_finish                            - Undefined Weak Reference
    _signal_init                              - Undefined Weak Reference
    _terminateio                              - Undefined Weak Reference
    Reset_Go                                 0x00000054   ARM Code       0  startup_nuc970.o(NUC_INIT)
    __main                                   0x000000ac   ARM Code       8  __main.o(!!!main)
    __scatterload                            0x000000b4   ARM Code       0  __scatter.o(!!!scatter)
    __scatterload_rt2                        0x000000b4   ARM Code      52  __scatter.o(!!!scatter)
    __scatterload_null                       0x000000c8   ARM Code       0  __scatter.o(!!!scatter)
    __decompress                             0x000000f0   ARM Code      92  __dczerorl2.o(!!dczerorl2)
    __decompress1                            0x000000f0   ARM Code       0  __dczerorl2.o(!!dczerorl2)
    __scatterload_copy                       0x0000014c   ARM Code      40  __scatter_copy.o(!!handler_copy)
    __scatterload_zeroinit                   0x00000174   ARM Code      44  __scatter_zi.o(!!handler_zi)
    _printf_f                                0x000001a0   ARM Code       0  _printf_f.o(.ARM.Collect$$_printf_percent$$00000003)
    _printf_percent                          0x000001a0   ARM Code       0  _printf_percent.o(.ARM.Collect$$_printf_percent$$00000000)
    _printf_e                                0x000001a8   ARM Code       0  _printf_e.o(.ARM.Collect$$_printf_percent$$00000004)
    _printf_d                                0x000001b0   ARM Code       0  _printf_d.o(.ARM.Collect$$_printf_percent$$00000009)
    _printf_u                                0x000001b8   ARM Code       0  _printf_u.o(.ARM.Collect$$_printf_percent$$0000000A)
    _printf_x                                0x000001c0   ARM Code       0  _printf_x.o(.ARM.Collect$$_printf_percent$$0000000C)
    _printf_c                                0x000001c8   ARM Code       0  _printf_c.o(.ARM.Collect$$_printf_percent$$00000013)
    _printf_s                                0x000001d0   ARM Code       0  _printf_s.o(.ARM.Collect$$_printf_percent$$00000014)
    _printf_percent_end                      0x000001d8   ARM Code       0  _printf_percent_end.o(.ARM.Collect$$_printf_percent$$00000017)
    __rt_lib_init                            0x000001e1   Thumb Code     0  libinit.o(.ARM.Collect$$libinit$$00000000)
    __rt_lib_init_fp_1                       0x000001e3   Thumb Code     0  libinit2.o(.ARM.Collect$$libinit$$00000002)
    __rt_lib_init_heap_1                     0x000001e3   Thumb Code     0  libinit2.o(.ARM.Collect$$libinit$$00000008)
    __rt_lib_init_lc_common                  0x000001e3   Thumb Code     0  libinit2.o(.ARM.Collect$$libinit$$0000000D)
    __rt_lib_init_rand_1                     0x000001e3   Thumb Code     0  libinit2.o(.ARM.Collect$$libinit$$0000000C)
    __rt_lib_init_user_alloc_1               0x000001e3   Thumb Code     0  libinit2.o(.ARM.Collect$$libinit$$0000000A)
    __rt_lib_init_lc_collate_1               0x000001e9   Thumb Code     0  libinit2.o(.ARM.Collect$$libinit$$0000000F)
    __rt_lib_init_lc_ctype_2                 0x000001e9   Thumb Code     0  libinit2.o(.ARM.Collect$$libinit$$00000010)
    __rt_lib_init_lc_ctype_1                 0x000001f5   Thumb Code     0  libinit2.o(.ARM.Collect$$libinit$$00000011)
    __rt_lib_init_lc_monetary_1              0x000001f5   Thumb Code     0  libinit2.o(.ARM.Collect$$libinit$$00000013)
    __rt_lib_init_lc_numeric_2               0x000001f5   Thumb Code     0  libinit2.o(.ARM.Collect$$libinit$$00000014)
    __rt_lib_init_alloca_1                   0x000001ff   Thumb Code     0  libinit2.o(.ARM.Collect$$libinit$$0000002C)
    __rt_lib_init_argv_1                     0x000001ff   Thumb Code     0  libinit2.o(.ARM.Collect$$libinit$$0000002A)
    __rt_lib_init_atexit_1                   0x000001ff   Thumb Code     0  libinit2.o(.ARM.Collect$$libinit$$00000019)
    __rt_lib_init_clock_1                    0x000001ff   Thumb Code     0  libinit2.o(.ARM.Collect$$libinit$$0000001F)
    __rt_lib_init_cpp_1                      0x000001ff   Thumb Code     0  libinit2.o(.ARM.Collect$$libinit$$00000030)
    __rt_lib_init_exceptions_1               0x000001ff   Thumb Code     0  libinit2.o(.ARM.Collect$$libinit$$0000002E)
    __rt_lib_init_fp_trap_1                  0x000001ff   Thumb Code     0  libinit2.o(.ARM.Collect$$libinit$$0000001D)
    __rt_lib_init_getenv_1                   0x000001ff   Thumb Code     0  libinit2.o(.ARM.Collect$$libinit$$00000021)
    __rt_lib_init_lc_numeric_1               0x000001ff   Thumb Code     0  libinit2.o(.ARM.Collect$$libinit$$00000015)
    __rt_lib_init_lc_time_1                  0x000001ff   Thumb Code     0  libinit2.o(.ARM.Collect$$libinit$$00000017)
    __rt_lib_init_return                     0x000001ff   Thumb Code     0  libinit2.o(.ARM.Collect$$libinit$$00000031)
    __rt_lib_init_signal_1                   0x000001ff   Thumb Code     0  libinit2.o(.ARM.Collect$$libinit$$0000001B)
    __rt_lib_init_stdio_1                    0x000001ff   Thumb Code     0  libinit2.o(.ARM.Collect$$libinit$$00000023)
    __rt_lib_shutdown                        0x00000201   Thumb Code     0  libshutdown.o(.ARM.Collect$$libshutdown$$00000000)
    __rt_lib_shutdown_fp_trap_1              0x00000203   Thumb Code     0  libshutdown2.o(.ARM.Collect$$libshutdown$$00000006)
    __rt_lib_shutdown_heap_1                 0x00000203   Thumb Code     0  libshutdown2.o(.ARM.Collect$$libshutdown$$0000000E)
    __rt_lib_shutdown_return                 0x00000203   Thumb Code     0  libshutdown2.o(.ARM.Collect$$libshutdown$$0000000F)
    __rt_lib_shutdown_signal_1               0x00000203   Thumb Code     0  libshutdown2.o(.ARM.Collect$$libshutdown$$00000009)
    __rt_lib_shutdown_stdio_1                0x00000203   Thumb Code     0  libshutdown2.o(.ARM.Collect$$libshutdown$$00000003)
    __rt_lib_shutdown_user_alloc_1           0x00000203   Thumb Code     0  libshutdown2.o(.ARM.Collect$$libshutdown$$0000000B)
    __rt_entry                               0x00000204   ARM Code       0  rtentry.o(.ARM.Collect$$rtentry$$00000000)
    __rt_entry_presh_1                       0x00000204   ARM Code       0  rtentry2.o(.ARM.Collect$$rtentry$$00000002)
    __rt_entry_sh                            0x00000204   ARM Code       0  rtentry4.o(.ARM.Collect$$rtentry$$00000004)
    __rt_entry_li                            0x0000020c   ARM Code       0  rtentry2.o(.ARM.Collect$$rtentry$$0000000A)
    __rt_entry_postsh_1                      0x0000020c   ARM Code       0  rtentry2.o(.ARM.Collect$$rtentry$$00000009)
    __rt_entry_main                          0x00000210   ARM Code       0  rtentry2.o(.ARM.Collect$$rtentry$$0000000D)
    __rt_entry_postli_1                      0x00000210   ARM Code       0  rtentry2.o(.ARM.Collect$$rtentry$$0000000C)
    __rt_exit                                0x00000238   ARM Code       0  rtexit.o(.ARM.Collect$$rtexit$$00000000)
    __rt_exit_ls                             0x0000023c   ARM Code       0  rtexit2.o(.ARM.Collect$$rtexit$$00000003)
    __rt_exit_prels_1                        0x0000023c   ARM Code       0  rtexit2.o(.ARM.Collect$$rtexit$$00000002)
    __rt_exit_exit                           0x00000240   ARM Code       0  rtexit2.o(.ARM.Collect$$rtexit$$00000004)
    __wfi                                    0x00000248   ARM Code       8  osmisc.o(.emb_text)
    SysGetBooted                             0x000010cc   ARM Code      12  main.o(.text)
    main                                     0x000010d8   ARM Code     176  main.o(.text)
    sysIrqHandler                            0x000011d8   ARM Code      96  sys.o(.text)
    sysFiqHandler                            0x00001238   ARM Code     120  sys.o(.text)
    SYS_Interrupt_Shell                      0x000012b0   ARM Code      24  sys.o(.text)
    sysInitializeAIC                         0x000012c8   ARM Code      16  sys.o(.text)
    sysDisableInterrupt                      0x000012d8   ARM Code      84  sys.o(.text)
    sysEnableInterrupt                       0x0000132c   ARM Code      84  sys.o(.text)
    sysInstallExceptionHandler               0x00001380   ARM Code     140  sys.o(.text)
    sysInstallFiqHandler                     0x0000140c   ARM Code      20  sys.o(.text)
    sysInstallIrqHandler                     0x00001420   ARM Code      68  sys.o(.text)
    sysInstallISR                            0x00001464   ARM Code     160  sys.o(.text)
    sysSetGlobalInterrupt                    0x00001504   ARM Code      92  sys.o(.text)
    sysSetInterruptPriorityLevel             0x00001560   ARM Code     112  sys.o(.text)
    sysSetInterruptType                      0x000015d0   ARM Code     112  sys.o(.text)
    sysSetLocalInterrupt                     0x00001640   ARM Code     140  sys.o(.text)
    sysGetInterruptEnableStatus              0x000016cc   ARM Code      12  sys.o(.text)
    sysGetInterruptEnableStatusH             0x000016d8   ARM Code      12  sys.o(.text)
    sysGetIBitState                          0x000016e4   ARM Code      28  sys.o(.text)
    sysGetPLL                                0x00001700   ARM Code      68  sys.o(.text)
    sysGetClock                              0x00001744   ARM Code     956  sys.o(.text)
    sysTimer0ISR                             0x00001b0c   ARM Code     260  sys_timer.o(.text)
    sysTimer1ISR                             0x00001c10   ARM Code     260  sys_timer.o(.text)
    sysGetTicks                              0x00001d14   ARM Code      76  sys_timer.o(.text)
    sysResetTicks                            0x00001d60   ARM Code      84  sys_timer.o(.text)
    sysUpdateTickCount                       0x00001db4   ARM Code      76  sys_timer.o(.text)
    sysSetTimerReferenceClock                0x00001e00   ARM Code      76  sys_timer.o(.text)
    sysStartTimer                            0x00001e4c   ARM Code     444  sys_timer.o(.text)
    sysStopTimer                             0x00002008   ARM Code     212  sys_timer.o(.text)
    sysClearWatchDogTimerCount               0x000020dc   ARM Code      44  sys_timer.o(.text)
    sysClearWatchDogTimerInterruptStatus     0x00002108   ARM Code      44  sys_timer.o(.text)
    sysDisableWatchDogTimer                  0x00002134   ARM Code      44  sys_timer.o(.text)
    sysDisableWatchDogTimerReset             0x00002160   ARM Code      44  sys_timer.o(.text)
    sysEnableWatchDogTimer                   0x0000218c   ARM Code      44  sys_timer.o(.text)
    sysEnableWatchDogTimerReset              0x000021b8   ARM Code      44  sys_timer.o(.text)
    sysInstallWatchDogTimerISR               0x000021e4   ARM Code      96  sys_timer.o(.text)
    sysSetWatchDogTimerInterval              0x00002244   ARM Code      56  sys_timer.o(.text)
    sysSetTimerEvent                         0x0000227c   ARM Code     400  sys_timer.o(.text)
    sysClearTimerEvent                       0x0000240c   ARM Code     180  sys_timer.o(.text)
    sysDOS_Time_To_UTC                       0x000024c0   ARM Code     300  sys_timer.o(.text)
    sysUTC_To_DOS_Time                       0x000025ec   ARM Code     320  sys_timer.o(.text)
    sysSetLocalTime                          0x0000272c   ARM Code      64  sys_timer.o(.text)
    sysGetCurrentTime                        0x0000276c   ARM Code      68  sys_timer.o(.text)
    sysDelay                                 0x000027b0   ARM Code      96  sys_timer.o(.text)
    _PutChar_f                               0x00002878   ARM Code      72  sys_uart.o(.text)
    sysPutString                             0x000028c0   ARM Code      40  sys_uart.o(.text)
    sysIsKbHit                               0x00002cd0   ARM Code      32  sys_uart.o(.text)
    sysInitializeUART                        0x00002cf0   ARM Code      76  sys_uart.o(.text)
    sysprintf                                0x00002d3c   ARM Code     112  sys_uart.o(.text)
    sysGetChar                               0x00002dac   ARM Code      60  sys_uart.o(.text)
    sysPutChar                               0x00002de8   ARM Code      32  sys_uart.o(.text)
    sysGetCacheState                         0x00002e0c   ARM Code      12  system_nuc970.o(.text)
    sysGetPhyPageAddr                        0x00002e18   ARM Code     100  system_nuc970.o(.text)
    sysSetCachePages                         0x00002e7c   ARM Code     268  system_nuc970.o(.text)
    sysInitPageTable                         0x00002f88   ARM Code     372  system_nuc970.o(.text)
    sysSetMMUMappingMethod                   0x000030fc   ARM Code      20  system_nuc970.o(.text)
    sysGetSdramSizebyMB                      0x00003110   ARM Code     456  system_nuc970.o(.text)
    sysInitMMUTable                          0x000032d8   ARM Code     688  system_nuc970.o(.text)
    sysFlushCache                            0x00003588   ARM Code     112  system_nuc970.o(.text)
    sysInvalidCache                          0x000035f8   ARM Code      12  system_nuc970.o(.text)
    sysGetCacheMode                          0x00003604   ARM Code      12  system_nuc970.o(.text)
    _sysLockCode                             0x00003610   ARM Code     132  system_nuc970.o(.text)
    _sysUnLockCode                           0x00003694   ARM Code      20  system_nuc970.o(.text)
    sysEnableCache                           0x000036a8   ARM Code      44  system_nuc970.o(.text)
    sysDisableCache                          0x000036d4   ARM Code      64  system_nuc970.o(.text)
    RS485_HANDLE                             0x00003a4c   ARM Code     180  uart.o(.text)
    uart0ISR                                 0x00003bfc   ARM Code     112  uart.o(.text)
    uart1ISR                                 0x00003d24   ARM Code     228  uart.o(.text)
    uart2ISR                                 0x00003e08   ARM Code     276  uart.o(.text)
    uart3ISR                                 0x00003f1c   ARM Code     228  uart.o(.text)
    uart4ISR                                 0x00004000   ARM Code     228  uart.o(.text)
    uart5ISR                                 0x000040e4   ARM Code     228  uart.o(.text)
    uart6ISR                                 0x000041c8   ARM Code     228  uart.o(.text)
    uart7ISR                                 0x000042ac   ARM Code     228  uart.o(.text)
    uart8ISR                                 0x00004390   ARM Code     228  uart.o(.text)
    uart9ISR                                 0x00004474   ARM Code     432  uart.o(.text)
    uart10ISR                                0x00004624   ARM Code     228  uart.o(.text)
    uartInit                                 0x000051c4   ARM Code     168  uart.o(.text)
    uartOpen                                 0x0000526c   ARM Code     140  uart.o(.text)
    uartWaitReadEvent                        0x000052f8   ARM Code      40  uart.o(.text)
    uartRead                                 0x00005320   ARM Code     128  uart.o(.text)
    uartWrite                                0x000053a0   ARM Code     456  uart.o(.text)
    uartIoctl                                0x00005568   ARM Code    2076  uart.o(.text)
    uartRelease                              0x00005d84   ARM Code     116  uart.o(.text)
    _sys_exit                                0x00005e50   ARM Code       8  standalone.o(.text)
    _ttywrch                                 0x00005e58   ARM Code       8  standalone.o(.text)
    __user_setup_stackheap                   0x00005e60   ARM Code      44  standalone.o(.text)
    GPIO_IRQHandler                          0x00005e90   ARM Code     116  gpio.o(.text)
    GPIO_IRQHandler0                         0x00005f04   ARM Code      64  gpio.o(.text)
    GPIO_IRQHandler1                         0x00005f44   ARM Code      64  gpio.o(.text)
    GPIO_IRQHandler2                         0x00005f84   ARM Code      64  gpio.o(.text)
    GPIO_IRQHandler3                         0x00005fc4   ARM Code      64  gpio.o(.text)
    GPIO_IRQHandler4                         0x00006004   ARM Code      64  gpio.o(.text)
    GPIO_IRQHandler5                         0x00006044   ARM Code      64  gpio.o(.text)
    GPIO_IRQHandler6                         0x00006084   ARM Code      64  gpio.o(.text)
    GPIO_IRQHandler7                         0x000060c4   ARM Code      64  gpio.o(.text)
    GPIO_Open                                0x00006104   ARM Code     184  gpio.o(.text)
    GPIO_Close                               0x000061bc   ARM Code      60  gpio.o(.text)
    GPIO_Set                                 0x000061f8   ARM Code      44  gpio.o(.text)
    GPIO_Clr                                 0x00006224   ARM Code      44  gpio.o(.text)
    GPIO_ReadPort                            0x00006250   ARM Code      24  gpio.o(.text)
    GPIO_SetPortDir                          0x00006268   ARM Code      80  gpio.o(.text)
    GPIO_OpenBit                             0x000062b8   ARM Code     176  gpio.o(.text)
    GPIO_CloseBit                            0x00006368   ARM Code     112  gpio.o(.text)
    GPIO_SetBit                              0x000063d8   ARM Code      52  gpio.o(.text)
    GPIO_ClrISR                              0x0000640c   ARM Code      28  gpio.o(.text)
    GPIO_ClrISRBit                           0x00006428   ARM Code      32  gpio.o(.text)
    GPIO_ClrBit                              0x00006448   ARM Code      52  gpio.o(.text)
    GPIO_ReadBit                             0x0000647c   ARM Code      52  gpio.o(.text)
    GPIO_SetBitDir                           0x000064b0   ARM Code      60  gpio.o(.text)
    GPIO_BitIsUsed                           0x000064ec   ARM Code      64  gpio.o(.text)
    GPIO_EnableInt                           0x0000652c   ARM Code      88  gpio.o(.text)
    GPIO_DisableInt                          0x00006584   ARM Code     104  gpio.o(.text)
    GPIO_EnableEINT                          0x000065ec   ARM Code     360  gpio.o(.text)
    GPIO_EnableTriggerType                   0x00006754   ARM Code     524  gpio.o(.text)
    GPIO_DisableTriggerType                  0x00006960   ARM Code     108  gpio.o(.text)
    GPIO_DisableEINT                         0x000069cc   ARM Code      44  gpio.o(.text)
    GPIO_EnableDebounce                      0x000069f8   ARM Code      40  gpio.o(.text)
    GPIO_DisableDebounce                     0x00006a20   ARM Code      28  gpio.o(.text)
    RTC_Check                                0x00006a5c   ARM Code     112  rtc.o(.text)
    RTC_WriteEnable                          0x00006acc   ARM Code     184  rtc.o(.text)
    RTC_DoFrequencyCompensation              0x00006b84   ARM Code     132  rtc.o(.text)
    RTC_Ioctl                                0x00006c08   ARM Code    1732  rtc.o(.text)
    RTC_Init                                 0x00007414   ARM Code     240  rtc.o(.text)
    RTC_Open                                 0x00007504   ARM Code    1172  rtc.o(.text)
    RTC_Read                                 0x00007998   ARM Code     860  rtc.o(.text)
    RTC_Write                                0x00007cf4   ARM Code    1760  rtc.o(.text)
    RTC_Close                                0x000083d4   ARM Code      52  rtc.o(.text)
    RTC_EnableClock                          0x00008408   ARM Code      56  rtc.o(.text)
    spiInit                                  0x000084bc   ARM Code     116  spi.o(.text)
    spiIoctl                                 0x00008530   ARM Code    1092  spi.o(.text)
    spiOpen                                  0x00008974   ARM Code     160  spi.o(.text)
    spiGetBusyStatus                         0x00008a14   ARM Code      52  spi.o(.text)
    spiRead                                  0x00008a48   ARM Code      32  spi.o(.text)
    spiWrite                                 0x00008a68   ARM Code      32  spi.o(.text)
    i2cEnterCriticalSection                  0x00008fd0   ARM Code     100  i2c.o(.text)
    i2cExitCriticalSection                   0x00009034   ARM Code     100  i2c.o(.text)
    i2cOpen                                  0x00009098   ARM Code     184  i2c.o(.text)
    i2cClose                                 0x00009150   ARM Code     104  i2c.o(.text)
    i2cRead                                  0x000091b8   ARM Code     548  i2c.o(.text)
    i2cWrite                                 0x000093dc   ARM Code     416  i2c.o(.text)
    i2cIoctl                                 0x0000957c   ARM Code     196  i2c.o(.text)
    i2cExit                                  0x00009640   ARM Code       8  i2c.o(.text)
    i2cInit                                  0x00009648   ARM Code     108  i2c.o(.text)
    SD_CheckRB                               0x000096bc   ARM Code      76  sdh.o(.text)
    SD_SDCommand                             0x00009708   ARM Code     100  sdh.o(.text)
    SD_SDCmdAndRsp                           0x0000976c   ARM Code     340  sdh.o(.text)
    SD_Swap32                                0x000098c0   ARM Code      40  sdh.o(.text)
    SD_SDCmdAndRsp2                          0x000098e8   ARM Code     216  sdh.o(.text)
    SD_SDCmdAndRspDataIn                     0x000099c0   ARM Code     188  sdh.o(.text)
    SD_Set_clock                             0x00009a7c   ARM Code     336  sdh.o(.text)
    SD_CardSelect                            0x00009bcc   ARM Code      68  sdh.o(.text)
    SD_Init                                  0x00009c10   ARM Code    1032  sdh.o(.text)
    SD_SwitchToHighSpeed                     0x0000a018   ARM Code     540  sdh.o(.text)
    SD_SelectCardType                        0x0000a234   ARM Code     836  sdh.o(.text)
    SD_Get_SD_info                           0x0000a578   ARM Code     492  sdh.o(.text)
    SD_CardDetection                         0x0000a764   ARM Code     416  sdh.o(.text)
    SD_SetReferenceClock                     0x0000a904   ARM Code      12  sdh.o(.text)
    SD_Open                                  0x0000a910   ARM Code     440  sdh.o(.text)
    SD_Probe                                 0x0000aac8   ARM Code     324  sdh.o(.text)
    SD_Read                                  0x0000ac0c   ARM Code     820  sdh.o(.text)
    SD_Write                                 0x0000af40   ARM Code     740  sdh.o(.text)
    adcISR                                   0x0000b258   ARM Code    1268  adc.o(.text)
    adcOpen                                  0x0000b74c   ARM Code     256  adc.o(.text)
    adcClose                                 0x0000b84c   ARM Code      68  adc.o(.text)
    adcReadXY                                0x0000b890   ARM Code     380  adc.o(.text)
    adcReadZ                                 0x0000ba0c   ARM Code     380  adc.o(.text)
    adcIoctl                                 0x0000bb88   ARM Code    1656  adc.o(.text)
    adcChangeChannel                         0x0000c200   ARM Code      64  adc.o(.text)
    ETIMER_Open                              0x0000c2a4   ARM Code     292  etimer.o(.text)
    ETIMER_Close                             0x0000c3c8   ARM Code     120  etimer.o(.text)
    ETIMER_Delay                             0x0000c440   ARM Code     636  etimer.o(.text)
    ETIMER_EnableCapture                     0x0000c6bc   ARM Code     168  etimer.o(.text)
    ETIMER_DisableCapture                    0x0000c764   ARM Code     120  etimer.o(.text)
    GuiStandbyOnDraw                         0x0000c984   ARM Code     480  guistandby.o(.text)
    GuiStandbyUpdateData                     0x0000cb64   ARM Code      40  guistandby.o(.text)
    GuiStandbyKeyCallback                    0x0000cb8c   ARM Code     660  guistandby.o(.text)
    GuiStandbyTimerCallback                  0x0000ce20   ARM Code     144  guistandby.o(.text)
    GuiStandbyPowerCallbackFunc              0x0000ceb0   ARM Code     184  guistandby.o(.text)
    GuiManagerRefreshScreen                  0x0000cfdc   ARM Code      88  guimanager.o(.text)
    GuiManagerShowScreen                     0x0000d040   ARM Code     268  guimanager.o(.text)
    GuiManagerInit                           0x0000d14c   ARM Code     436  guimanager.o(.text)
    GuiManagerUpdateScreen                   0x0000d300   ARM Code      88  guimanager.o(.text)
    GuiManagerCompareCurrentScreenId         0x0000d358   ARM Code      40  guimanager.o(.text)
    GetMeterData                             0x0000d530   ARM Code       8  meterdata.o(.text)
    MeterGetCurrentDCFFileName               0x0000d538   ARM Code     116  meterdata.o(.text)
    AutoUpdateMeterData                      0x0000d93c   ARM Code     740  meterdata.o(.text)
    MeterDataInit                            0x0000e02c   ARM Code     344  meterdata.o(.text)
    UpdateMeterDepositTime                   0x0000e184   ARM Code     152  meterdata.o(.text)
    UpdateMeterCurrentSelSpace               0x0000e21c   ARM Code     148  meterdata.o(.text)
    MeterSetErrorCode                        0x0000e2b0   ARM Code      44  meterdata.o(.text)
    MeterUpdateExpiredTitle                  0x0000e2dc   ARM Code     704  meterdata.o(.text)
    MeterSetBuildVer                         0x0000e59c   ARM Code      20  meterdata.o(.text)
    MeterUpdateLedHeartbeat                  0x0000e5b0   ARM Code      16  meterdata.o(.text)
    MeterUpdateModemAgentLastTime            0x0000e5c0   ARM Code     120  meterdata.o(.text)
    GuiSelSpaceOnDraw                        0x0000e81c   ARM Code     232  guiselspace.o(.text)
    GuiSelSpaceKeyCallback                   0x0000e904   ARM Code     516  guiselspace.o(.text)
    GuiSelSpaceTimerCallback                 0x0000eb08   ARM Code     124  guiselspace.o(.text)
    GuiSelSpacePowerCallbackFunc             0x0000eb84   ARM Code      92  guiselspace.o(.text)
    GuiSelTimeOnDraw                         0x0000ecc4   ARM Code     188  guiseltime.o(.text)
    GuiSelTimeKeyCallback                    0x0000ed80   ARM Code     732  guiseltime.o(.text)
    GuiSelTimeTimerCallback                  0x0000f05c   ARM Code     124  guiseltime.o(.text)
    GuiSelTimePowerCallbackFunc              0x0000f0d8   ARM Code      92  guiseltime.o(.text)
    GuiReaderInitOnDraw                      0x0000f1bc   ARM Code     188  guireaderinit.o(.text)
    GuiReaderInitKeyCallback                 0x0000f278   ARM Code     344  guireaderinit.o(.text)
    GuiReaderInitTimerCallback               0x0000f3d0   ARM Code     152  guireaderinit.o(.text)
    GuiReaderInitPowerCallbackFunc           0x0000f468   ARM Code      92  guireaderinit.o(.text)
    GuiDepositOnDraw                         0x0000f7b0   ARM Code     212  guideposit.o(.text)
    GuiDepositKeyCallback                    0x0000f884   ARM Code     276  guideposit.o(.text)
    GuiDepositTimerCallback                  0x0000f998   ARM Code     144  guideposit.o(.text)
    GuiDepositPowerCallbackFunc              0x0000fa28   ARM Code      92  guideposit.o(.text)
    GuiDepositFailOnDraw                     0x0000fac8   ARM Code     156  guidepositfail.o(.text)
    GuiDepositFailKeyCallback                0x0000fb64   ARM Code     236  guidepositfail.o(.text)
    GuiDepositFailTimerCallback              0x0000fc50   ARM Code     232  guidepositfail.o(.text)
    GuiDepositFailPowerCallbackFunc          0x0000fd38   ARM Code      92  guidepositfail.o(.text)
    GuiDepositOKOnDraw                       0x0000fde8   ARM Code     164  guidepositok.o(.text)
    GuiDepositOKKeyCallback                  0x0000fe8c   ARM Code     212  guidepositok.o(.text)
    GuiDepositOKTimerCallback                0x0000ff60   ARM Code     232  guidepositok.o(.text)
    GuiDepositOKPowerCallbackFunc            0x00010048   ARM Code      92  guidepositok.o(.text)
    GuiReplaceBPOnDraw                       0x0001025c   ARM Code     188  guireplacebp.o(.text)
    GuiReplaceBPKeyCallback                  0x00010318   ARM Code     488  guireplacebp.o(.text)
    GuiReplaceBPTimerCallback                0x00010500   ARM Code     104  guireplacebp.o(.text)
    GuiReplaceBPPowerCallbackFunc            0x00010568   ARM Code      92  guireplacebp.o(.text)
    GuiTesterOnDraw                          0x00010638   ARM Code     188  guitester.o(.text)
    GuiTesterKeyCallback                     0x000106f4   ARM Code     492  guitester.o(.text)
    GuiTesterTimerCallback                   0x000108e0   ARM Code     104  guitester.o(.text)
    GuiTesterPowerCallbackFunc               0x00010948   ARM Code      92  guitester.o(.text)
    GuiTesterKeypadOnDraw                    0x00010a18   ARM Code     188  guitesterkeypad.o(.text)
    GuiTesterKeypadKeyCallback               0x00010ad4   ARM Code     504  guitesterkeypad.o(.text)
    GuiTesterKeypadTimerCallback             0x00010ccc   ARM Code     104  guitesterkeypad.o(.text)
    GuiTesterKeypadPowerCallbackFunc         0x00010d34   ARM Code      92  guitesterkeypad.o(.text)
    printParaValue                           0x00010dd4   ARM Code     196  paralib.o(.text)
    MeterDataReloadParaFile                  0x00011770   ARM Code      72  paralib.o(.text)
    ParaLibInit                              0x00011a10   ARM Code      56  paralib.o(.text)
    GetMeterPara                             0x00011a48   ARM Code       8  paralib.o(.text)
    GetMeterStorageData                      0x00011a50   ARM Code       8  paralib.o(.text)
    MeterStorageFlush                        0x00011a58   ARM Code      60  paralib.o(.text)
    ParaLibResetDepositEndTime               0x00011a94   ARM Code      68  paralib.o(.text)
    GuiFileDownloadOnDraw                    0x00011bf8   ARM Code     156  guifiledownload.o(.text)
    GuiFileDownloadKeyCallback               0x00011c94   ARM Code     140  guifiledownload.o(.text)
    GuiFileDownloadTimerCallback             0x00011d20   ARM Code     232  guifiledownload.o(.text)
    GuiFileDownloadPowerCallbackFunc         0x00011e08   ARM Code      92  guifiledownload.o(.text)
    GuiFreeOnDraw                            0x00011eb8   ARM Code     156  guifree.o(.text)
    GuiFreeKeyCallback                       0x00011f54   ARM Code     140  guifree.o(.text)
    GuiFreeTimerCallback                     0x00011fe0   ARM Code     104  guifree.o(.text)
    GuiFreePowerCallbackFunc                 0x00012048   ARM Code     204  guifree.o(.text)
    GuiOffOnDraw                             0x00012168   ARM Code     156  guioff.o(.text)
    GuiOffKeyCallback                        0x00012204   ARM Code     140  guioff.o(.text)
    GuiOffTimerCallback                      0x00012290   ARM Code     104  guioff.o(.text)
    GuiOffPowerCallbackFunc                  0x000122f8   ARM Code     204  guioff.o(.text)
    KeyGetInterface                          0x000123c4   ARM Code       8  halinterface.o(.text)
    TimerGetInterface                        0x000123cc   ARM Code       8  halinterface.o(.text)
    GuiGetInterface                          0x000123d4   ARM Code       8  halinterface.o(.text)
    TSReaderGetInterface                     0x000123dc   ARM Code      36  halinterface.o(.text)
    GUIDrvInit                               0x00012580   ARM Code     492  guidrv.o(.text)
    GuiSetKeyCallbackFunc                    0x0001276c   ARM Code      12  guidrv.o(.text)
    GuiSetTimerCallbackFunc                  0x00012778   ARM Code      12  guidrv.o(.text)
    GuiSetTimeout                            0x00012784   ARM Code      40  guidrv.o(.text)
    GuiRunTimeoutFunc                        0x000127ac   ARM Code      32  guidrv.o(.text)
    GuiSetInstance                           0x000127cc   ARM Code     148  guidrv.o(.text)
    KeyDrvInit                               0x0001296c   ARM Code     144  keydrv.o(.text)
    KeyDrvSetCallbackFunc                    0x000129fc   ARM Code      12  keydrv.o(.text)
    KeyDrvSetMode                            0x00012a08   ARM Code      12  keydrv.o(.text)
    RTC_Releative_AlarmISR                   0x00012a8c   ARM Code      16  powerdrv.o(.text)
    PowerClearISR                            0x00012d1c   ARM Code     636  powerdrv.o(.text)
    PowerSuspend                             0x00012f98   ARM Code     388  powerdrv.o(.text)
    PowerRegCallback                         0x000132dc   ARM Code     116  powerdrv.o(.text)
    PowerDrvInit                             0x00013350   ARM Code     176  powerdrv.o(.text)
    PowerSetWakeupTime                       0x00013400   ARM Code      40  powerdrv.o(.text)
    PowerGetTotalWakeupTick                  0x00013428   ARM Code      12  powerdrv.o(.text)
    PowerDrvSetEnable                        0x00013434   ARM Code     316  powerdrv.o(.text)
    TimerDrvInit                             0x00013620   ARM Code     184  timerdrv.o(.text)
    TimerSetTimeout                          0x000136d8   ARM Code      60  timerdrv.o(.text)
    TimerAllStop                             0x00013714   ARM Code      44  timerdrv.o(.text)
    TimerRun                                 0x00013740   ARM Code      52  timerdrv.o(.text)
    TimerSetCallback                         0x00013774   ARM Code      12  timerdrv.o(.text)
    CardReaderInit                           0x00013888   ARM Code     408  cardreader.o(.text)
    CardReaderStartInit                      0x00013a20   ARM Code      76  cardreader.o(.text)
    CardReaderStopInit                       0x00013a6c   ARM Code      56  cardreader.o(.text)
    CardReaderGetBootedStatus                0x00013aa4   ARM Code      32  cardreader.o(.text)
    CardReaderSetPower                       0x00013ac4   ARM Code     100  cardreader.o(.text)
    CardReaderProcess                        0x00013b28   ARM Code      64  cardreader.o(.text)
    EPDSetBacklight                          0x00013f64   ARM Code      60  epddrv.o(.text)
    EPDDrawUpperLine                         0x00014ba4   ARM Code     156  epddrv.o(.text)
    EPDDrawDeviceId                          0x000153e8   ARM Code     124  epddrv.o(.text)
    EPDShowBGScreen                          0x00015464   ARM Code     160  epddrv.o(.text)
    EpdDrvInit                               0x00015504   ARM Code     212  epddrv.o(.text)
    EPDGetBacklight                          0x000155d8   ARM Code      48  epddrv.o(.text)
    EPDReSetBacklightTimeout                 0x00015608   ARM Code      52  epddrv.o(.text)
    EPDSetReinitCallbackFunc                 0x0001563c   ARM Code      12  epddrv.o(.text)
    calculateDeviceIDPositionInfo            0x00015648   ARM Code     572  epddrv.o(.text)
    EPDShowErrorID                           0x00015884   ARM Code     328  epddrv.o(.text)
    ShowExpired                              0x000159cc   ARM Code     520  epddrv.o(.text)
    UpdateClock                              0x00015bd4   ARM Code     328  epddrv.o(.text)
    calculatePreparePositionInfo             0x00015d1c   ARM Code     468  epddrv.o(.text)
    EPDDrawBanner                            0x00015ef0   ARM Code     260  epddrv.o(.text)
    EPDDrawBannerLine                        0x00015ff4   ARM Code     124  epddrv.o(.text)
    getIDFromTime                            0x00016070   ARM Code     196  epddrv.o(.text)
    SetDepositTimeBmpIdInfo                  0x00016134   ARM Code     136  epddrv.o(.text)
    EPDDrawContainByID                       0x000161bc   ARM Code     152  epddrv.o(.text)
    EPDDrawContainBG                         0x00016254   ARM Code     160  epddrv.o(.text)
    EPDDrawCar                               0x00016350   ARM Code     224  epddrv.o(.text)
    EPDDrawItem                              0x00016430   ARM Code    1420  epddrv.o(.text)
    EPDDrawDepositTime                       0x000169bc   ARM Code     352  epddrv.o(.text)
    EPDDrawAllDepositTime                    0x00016b1c   ARM Code     132  epddrv.o(.text)
    EPDDrawAllScreen                         0x00016ba0   ARM Code     144  epddrv.o(.text)
    EPDDrawPleaseWait                        0x00016c30   ARM Code     176  epddrv.o(.text)
    EPDDrawContainSelTime                    0x00016ce0   ARM Code     152  epddrv.o(.text)
    EPDDrawContainClear                      0x00016d78   ARM Code     188  epddrv.o(.text)
    EPDDrawTime                              0x00016e34   ARM Code     380  epddrv.o(.text)
    getIDFromCost                            0x00016fb0   ARM Code     204  epddrv.o(.text)
    EPDDrawCost                              0x0001707c   ARM Code     448  epddrv.o(.text)
    ShowVoltage                              0x0001723c   ARM Code    1000  epddrv.o(.text)
    ShowBatteryStatus                        0x00017624   ARM Code     488  epddrv.o(.text)
    EPDEnterCriticalSection                  0x0001780c   ARM Code      32  epddrv.o(.text)
    EPDExitCriticalSection                   0x0001782c   ARM Code      32  epddrv.o(.text)
    SpaceDrvInit                             0x00017ccc   ARM Code     424  spacedrv.o(.text)
    GetSpaceStatus                           0x00017e74   ARM Code      16  spacedrv.o(.text)
    GetSpaceDist                             0x00017e84   ARM Code      16  spacedrv.o(.text)
    SetSpaceStatus                           0x00017e94   ARM Code      84  spacedrv.o(.text)
    StartSpaceDrv                            0x00017ee8   ARM Code      52  spacedrv.o(.text)
    fepgmtime                                0x00017f9c   ARM Code     560  timelib.o(.text)
    RTC2Time                                 0x000181cc   ARM Code     112  timelib.o(.text)
    Time2RTC                                 0x0001823c   ARM Code     160  timelib.o(.text)
    RTCAddTime                               0x000182dc   ARM Code      48  timelib.o(.text)
    RTCAddTimeEx                             0x0001830c   ARM Code      68  timelib.o(.text)
    SetOSTime                                0x00018350   ARM Code     204  timelib.o(.text)
    GetCurrentUTCTime                        0x0001841c   ARM Code      52  timelib.o(.text)
    UTCTimeToString                          0x00018450   ARM Code      80  timelib.o(.text)
    TS2000DrvInit                            0x00019964   ARM Code     120  ts2000drv.o(.text)
    TS2000SetPower                           0x000199dc   ARM Code     344  ts2000drv.o(.text)
    TS2000CheckReader                        0x00019b34   ARM Code     624  ts2000drv.o(.text)
    TS2000BreakCheckReader                   0x00019da4   ARM Code      20  ts2000drv.o(.text)
    TS2000Process                            0x00019db8   ARM Code     232  ts2000drv.o(.text)
    TS2000GetBootedStatus                    0x00019ea0   ARM Code      12  ts2000drv.o(.text)
    FatFsFormat                              0x00019f38   ARM Code     172  fatfslib.o(.text)
    FatfsGetDiskUseage                       0x00019fe4   ARM Code     500  fatfslib.o(.text)
    FatfsInit                                0x0001a1d8   ARM Code     788  fatfslib.o(.text)
    FatfsGetCallback                         0x0001a4ec   ARM Code      32  fatfslib.o(.text)
    FatfsGetDiskUseageEx                     0x0001a50c   ARM Code      76  fatfslib.o(.text)
    FatFsGetCounter                          0x0001a558   ARM Code       8  fatfslib.o(.text)
    FatFsGetExistFlag                        0x0001a560   ARM Code      16  fatfslib.o(.text)
    FatFsGetRootStr                          0x0001a570   ARM Code      16  fatfslib.o(.text)
    PhotoAgentInit                           0x0001a72c   ARM Code      56  photoagent.o(.text)
    PhotoAgentStartTakePhoto                 0x0001a764   ARM Code      80  photoagent.o(.text)
    JsonCmdLibInit                           0x0001a860   ARM Code      20  jsoncmdlib.o(.text)
    JsonCmdCreateTransactionStatusData       0x0001a874   ARM Code     180  jsoncmdlib.o(.text)
    JsonCmdCreateExpiredStatusData           0x0001a928   ARM Code      60  jsoncmdlib.o(.text)
    JsonCmdCreateStatusData                  0x0001a964   ARM Code    1632  jsoncmdlib.o(.text)
    ModemAgentInit                           0x0001b434   ARM Code      92  modemagent.o(.text)
    ModemAgentStartSend                      0x0001b490   ARM Code     104  modemagent.o(.text)
    TariffUpdateCurrentTariffData            0x0001cb3c   ARM Code      40  tarifflib.o(.text)
    TariffLoadTariffFile                     0x0001cb64   ARM Code     452  tarifflib.o(.text)
    TariffLibInit                            0x0001cd50   ARM Code      84  tarifflib.o(.text)
    TariffGetCurrentTariffType               0x0001cda4   ARM Code      12  tarifflib.o(.text)
    TariffGetFileName                        0x0001cdb0   ARM Code      32  tarifflib.o(.text)
    TariffGetNextWakeupTime                  0x0001cdd0   ARM Code      60  tarifflib.o(.text)
    Yaffs2DrvInit                            0x0001d8f8   ARM Code      96  yaffs2drv.o(.text)
    Yaffs2ListFileEx                         0x0001d958   ARM Code      24  yaffs2drv.o(.text)
    Yaffs2ErrorStr                           0x0001d970   ARM Code      12  yaffs2drv.o(.text)
    setExecuteFlag                           0x0001eb40   ARM Code     104  dataprocesslib.o(.text)
    DataProcessLibInit                       0x0001eba8   ARM Code      68  dataprocesslib.o(.text)
    DataProcessCheckExecute                  0x0001ebec   ARM Code      24  dataprocesslib.o(.text)
    DataProcessExecute                       0x0001ec04   ARM Code      28  dataprocesslib.o(.text)
    DataProcessSetExecuteFlag                0x0001ec20   ARM Code      36  dataprocesslib.o(.text)
    DataProcessSendStatusData                0x0001ec44   ARM Code     860  dataprocesslib.o(.text)
    DataProcessSendData                      0x0001efa0   ARM Code    1472  dataprocesslib.o(.text)
    DataParserWebPostReturnData              0x0001f560   ARM Code    1464  dataprocesslib.o(.text)
    getCurrentLogFileName                    0x0001fb1c   ARM Code     108  loglib.o(.text)
    LoglibInit                               0x0001fb88   ARM Code      36  loglib.o(.text)
    LoglibGetCurrentLogFileName              0x0001fbac   ARM Code       8  loglib.o(.text)
    LoglibPrintf                             0x0001fbb4   ARM Code     728  loglib.o(.text)
    Bay_light_Command                        0x0001fe8c   ARM Code     172  ledcmdlib.o(.text)
    State_light_Command                      0x0001ff38   ARM Code     172  ledcmdlib.o(.text)
    Light_Color_Command                      0x0001ffe4   ARM Code     356  ledcmdlib.o(.text)
    HeartBeatTimeSet                         0x00020148   ARM Code     184  ledcmdlib.o(.text)
    FactoryTest                              0x00020200   ARM Code      80  ledcmdlib.o(.text)
    RUN_Results                              0x00020250   ARM Code     272  ledcmdlib.o(.text)
    LedDrvInit                               0x00020c3c   ARM Code     236  leddrv.o(.text)
    LedSetStatus                             0x00020d28   ARM Code      12  leddrv.o(.text)
    LedSetColor                              0x00020d34   ARM Code     168  leddrv.o(.text)
    LedSetMode                               0x00020ddc   ARM Code       4  leddrv.o(.text)
    LedSendHeartbeat                         0x00020de0   ARM Code     276  leddrv.o(.text)
    FileAgentParserAutoData                  0x000214a8   ARM Code     456  fileagent.o(.text)
    FileAgentFatFsFormat                     0x00021a08   ARM Code     180  fileagent.o(.text)
    FileAgentGetFatfsList                    0x00021f30   ARM Code     860  fileagent.o(.text)
    FileAgentInit                            0x00022e14   ARM Code     460  fileagent.o(.text)
    FileAgentAddData                         0x00022fe0   ARM Code     780  fileagent.o(.text)
    FileAgentGetData                         0x000232ec   ARM Code      96  fileagent.o(.text)
    FileAgentDelFile                         0x0002334c   ARM Code     364  fileagent.o(.text)
    FileAgentGetList                         0x000234b8   ARM Code     200  fileagent.o(.text)
    FileAgentFatfsListFile                   0x000235f8   ARM Code     164  fileagent.o(.text)
    FileAgentFatfsDeleteFile                 0x0002369c   ARM Code      64  fileagent.o(.text)
    FileAgentGetFatFsAutoFormatCounter       0x000236dc   ARM Code      32  fileagent.o(.text)
    UserDrvInit                              0x0002379c   ARM Code      20  userdrv.o(.text)
    UartGetInterface                         0x00023838   ARM Code      36  interface.o(.text)
    SpiGetInterface                          0x0002385c   ARM Code      36  interface.o(.text)
    I2cGetInterface                          0x00023880   ARM Code      36  interface.o(.text)
    KeyHardwareGetInterface                  0x000238a4   ARM Code      32  interface.o(.text)
    DistGetInterface                         0x000238c4   ARM Code      32  interface.o(.text)
    CommunicationGetInterface                0x000238e4   ARM Code      32  interface.o(.text)
    FatfsHardwareGetInterface                0x00023904   ARM Code      36  interface.o(.text)
    UART1SetRS232Power                       0x00023944   ARM Code      52  uart1drv.o(.text)
    UART1SetPower                            0x00023978   ARM Code      52  uart1drv.o(.text)
    UART1DrvInit                             0x00023b3c   ARM Code      36  uart1drv.o(.text)
    UART1Write                               0x00023b60   ARM Code      44  uart1drv.o(.text)
    UART1Read                                0x00023b8c   ARM Code      36  uart1drv.o(.text)
    UART1ReadWait                            0x00023bb0   ARM Code      28  uart1drv.o(.text)
    UART1Ioctl                               0x00023bcc   ARM Code      44  uart1drv.o(.text)
    UART1SetRTS                              0x00023bf8   ARM Code      72  uart1drv.o(.text)
    UART1FlushBuffer                         0x00023c40   ARM Code      48  uart1drv.o(.text)
    UART2SetRS232Power                       0x00023d00   ARM Code      52  uart2drv.o(.text)
    UART2SetPower                            0x00023d34   ARM Code      52  uart2drv.o(.text)
    UART2DrvInit                             0x00023ef8   ARM Code      40  uart2drv.o(.text)
    UART2Write                               0x00023f20   ARM Code      36  uart2drv.o(.text)
    UART2Read                                0x00023f44   ARM Code      36  uart2drv.o(.text)
    UART2ReadWait                            0x00023f68   ARM Code      28  uart2drv.o(.text)
    UART2Ioctl                               0x00023f84   ARM Code      44  uart2drv.o(.text)
    UART3SetRS232Power                       0x0002402c   ARM Code      52  uart3drv.o(.text)
    UART3DrvInit                             0x00024194   ARM Code      36  uart3drv.o(.text)
    UART3Write                               0x000241b8   ARM Code      44  uart3drv.o(.text)
    UART3Read                                0x000241e4   ARM Code      36  uart3drv.o(.text)
    UART3ReadWait                            0x00024208   ARM Code      28  uart3drv.o(.text)
    UART3SetPower                            0x00024224   ARM Code      12  uart3drv.o(.text)
    UART3Ioctl                               0x00024230   ARM Code      44  uart3drv.o(.text)
    UART3SetRTS                              0x0002425c   ARM Code      72  uart3drv.o(.text)
    UART3FlushBuffer                         0x000242a4   ARM Code      48  uart3drv.o(.text)
    UART4SetPower                            0x00024364   ARM Code      52  uart4drv.o(.text)
    UART4DrvInit                             0x000244f8   ARM Code      36  uart4drv.o(.text)
    UART4Write                               0x0002451c   ARM Code      44  uart4drv.o(.text)
    UART4Read                                0x00024548   ARM Code      36  uart4drv.o(.text)
    UART4ReadWait                            0x0002456c   ARM Code      28  uart4drv.o(.text)
    UART4SetRS232Power                       0x00024588   ARM Code      12  uart4drv.o(.text)
    UART4Ioctl                               0x00024594   ARM Code      44  uart4drv.o(.text)
    UART4SetRTS                              0x000245c0   ARM Code      72  uart4drv.o(.text)
    UART4FlushBuffer                         0x00024608   ARM Code      48  uart4drv.o(.text)
    UART7SetRS232Power                       0x000246c8   ARM Code      52  uart7drv.o(.text)
    UART7DrvInit                             0x00024834   ARM Code      36  uart7drv.o(.text)
    UART7Write                               0x00024858   ARM Code      44  uart7drv.o(.text)
    UART7Read                                0x00024884   ARM Code      36  uart7drv.o(.text)
    UART7ReadWait                            0x000248a8   ARM Code      28  uart7drv.o(.text)
    UART7SetPower                            0x000248c4   ARM Code      12  uart7drv.o(.text)
    UART7Ioctl                               0x000248d0   ARM Code      44  uart7drv.o(.text)
    UART7SetRTS                              0x000248fc   ARM Code      72  uart7drv.o(.text)
    UART7FlushBuffer                         0x00024944   ARM Code      48  uart7drv.o(.text)
    UART8SetPower                            0x00024a04   ARM Code      52  uart8drv.o(.text)
    UART8DrvInit                             0x00024b98   ARM Code      36  uart8drv.o(.text)
    UART8Write                               0x00024bbc   ARM Code      36  uart8drv.o(.text)
    UART8Read                                0x00024be0   ARM Code      36  uart8drv.o(.text)
    UART8ReadWait                            0x00024c04   ARM Code      28  uart8drv.o(.text)
    UART8SetRS232Power                       0x00024c20   ARM Code      12  uart8drv.o(.text)
    UART8Ioctl                               0x00024c2c   ARM Code      44  uart8drv.o(.text)
    UART10SetRS232Power                      0x00024cd4   ARM Code      52  uart10drv.o(.text)
    UART10SetPower                           0x00024d08   ARM Code      52  uart10drv.o(.text)
    UART10DrvInit                            0x00024ecc   ARM Code      36  uart10drv.o(.text)
    UART10Write                              0x00024ef0   ARM Code      44  uart10drv.o(.text)
    UART10Read                               0x00024f1c   ARM Code      36  uart10drv.o(.text)
    UART10ReadWait                           0x00024f40   ARM Code      28  uart10drv.o(.text)
    UART10Ioctl                              0x00024f5c   ARM Code      44  uart10drv.o(.text)
    UART10SetRTS                             0x00024f88   ARM Code      72  uart10drv.o(.text)
    UART10FlushBuffer                        0x00024fd0   ARM Code      48  uart10drv.o(.text)
    Spi0SetPin                               0x00025094   ARM Code     112  spi0drv.o(.text)
    Spi0DrvInit                              0x000251b0   ARM Code      28  spi0drv.o(.text)
    Spi0Write                                0x000251cc   ARM Code      72  spi0drv.o(.text)
    Spi0Read                                 0x00025214   ARM Code      24  spi0drv.o(.text)
    Spi0ActiveCS                             0x0002522c   ARM Code      48  spi0drv.o(.text)
    Spi0ResetPin                             0x0002525c   ARM Code     100  spi0drv.o(.text)
    Spi1SetPin                               0x000252d4   ARM Code      88  spi1drv.o(.text)
    Spi1DrvInit                              0x000253d8   ARM Code      28  spi1drv.o(.text)
    Spi1Write                                0x000253f4   ARM Code      72  spi1drv.o(.text)
    Spi1Read                                 0x0002543c   ARM Code      24  spi1drv.o(.text)
    Spi1ActiveCS                             0x00025454   ARM Code      64  spi1drv.o(.text)
    Spi1ResetPin                             0x00025494   ARM Code      72  spi1drv.o(.text)
    I2c1DrvInit                              0x00025578   ARM Code      28  i2c1drv.o(.text)
    I2c1Ioctl                                0x00025594   ARM Code      40  i2c1drv.o(.text)
    I2c1Read                                 0x000255bc   ARM Code      32  i2c1drv.o(.text)
    I2c1Write                                0x000255dc   ARM Code      32  i2c1drv.o(.text)
    I2c1enableCriticalSectionFunc            0x000255fc   ARM Code      40  i2c1drv.o(.text)
    BuzzerDrvInit                            0x000257bc   ARM Code      76  buzzerdrv.o(.text)
    BuzzerPlay                               0x00025808   ARM Code     356  buzzerdrv.o(.text)
    BatteryDrvInit                           0x00025f6c   ARM Code      76  batterydrv.o(.text)
    BatteryGetValue                          0x00025fb8   ARM Code      36  batterydrv.o(.text)
    BatteryGetStatus                         0x00025fdc   ARM Code      28  batterydrv.o(.text)
    BatterySwitchStatusEx                    0x00025ff8   ARM Code      88  batterydrv.o(.text)
    BatterySetEnableTestMode                 0x00026050   ARM Code      84  batterydrv.o(.text)
    EINT4Callback                            0x0002647c   ARM Code     328  dipdrv.o(.text)
    EINT2Callback                            0x000265c4   ARM Code      68  dipdrv.o(.text)
    EINT3Callback                            0x00026608   ARM Code      68  dipdrv.o(.text)
    DipDrvInit                               0x000267ac   ARM Code     244  dipdrv.o(.text)
    DipSetCallbackFunc                       0x000268a0   ARM Code      12  dipdrv.o(.text)
    RS232CommDrvInit                         0x000268bc   ARM Code     168  rs232commdrv.o(.text)
    RS232CommDrvRead                         0x00026964   ARM Code      40  rs232commdrv.o(.text)
    RS232CommDrvWrite                        0x0002698c   ARM Code      40  rs232commdrv.o(.text)
    RS232CommDrvReadWait                     0x000269b4   ARM Code      32  rs232commdrv.o(.text)
    FlashDrvExInit                           0x00027200   ARM Code     160  flashdrvex.o(.text)
    FlashDrvExInitialize                     0x000272a0   ARM Code      56  flashdrvex.o(.text)
    FlashDrvExStatus                         0x000272d8   ARM Code      12  flashdrvex.o(.text)
    FlashDrvExRead                           0x000272e4   ARM Code     124  flashdrvex.o(.text)
    FlashDrvExWrite                          0x00027360   ARM Code     528  flashdrvex.o(.text)
    FlashDrvExIoctl                          0x00027570   ARM Code     160  flashdrvex.o(.text)
    FlashDrvExChipErase                      0x00027610   ARM Code     212  flashdrvex.o(.text)
    FlashDrvExGetErrorTimes                  0x000276e4   ARM Code      32  flashdrvex.o(.text)
    SDH_IRQHandler                           0x000277a0   ARM Code     296  sddrv.o(.text)
    get_fattime                              0x000278c8   ARM Code       8  sddrv.o(.text)
    SdDrvInit                                0x00027934   ARM Code     112  sddrv.o(.text)
    SDDrvInitialize                          0x000279a4   ARM Code      36  sddrv.o(.text)
    SDDrvStatus                              0x000279c8   ARM Code      36  sddrv.o(.text)
    SDDrvRead                                0x000279ec   ARM Code      76  sddrv.o(.text)
    SDDrvWrite                               0x00027a38   ARM Code      76  sddrv.o(.text)
    SDDrvIoctl                               0x00027a84   ARM Code     104  sddrv.o(.text)
    SR04TDrvInit                             0x000285f8   ARM Code      76  sr04tdrv.o(.text)
    SR04TMeasureDist                         0x00028644   ARM Code      28  sr04tdrv.o(.text)
    EINT1Callback                            0x00028988   ARM Code     156  nt066edrv.o(.text)
    NT066ESetClkReg                          0x00028b94   ARM Code     592  nt066edrv.o(.text)
    NT066EResetChip                          0x00028de4   ARM Code     524  nt066edrv.o(.text)
    NT066EDrvInit                            0x000290d8   ARM Code     164  nt066edrv.o(.text)
    NT066ESetCallbackFunc                    0x0002917c   ARM Code      12  nt066edrv.o(.text)
    ff_convert                               0x00029258   ARM Code     136  ccsbcs.o(.text)
    ff_wtoupper                              0x000292e0   ARM Code     100  ccsbcs.o(.text)
    disk_initialize                          0x00029350   ARM Code      76  diskio.o(.text)
    disk_status                              0x0002939c   ARM Code      76  diskio.o(.text)
    disk_read                                0x000293e8   ARM Code     232  diskio.o(.text)
    disk_write                               0x000294d0   ARM Code     280  diskio.o(.text)
    disk_ioctl                               0x000295e8   ARM Code     100  diskio.o(.text)
    ff_req_grant                             0x000296fc   ARM Code      60  ff.o(.text)
    ff_rel_grant                             0x0002974c   ARM Code      32  ff.o(.text)
    clust2sect                               0x000299e0   ARM Code      48  ff.o(.text)
    get_fat                                  0x00029a10   ARM Code     492  ff.o(.text)
    put_fat                                  0x00029bfc   ARM Code     628  ff.o(.text)
    ff_cre_syncobj                           0x0002c0ac   ARM Code      60  ff.o(.text)
    ff_del_syncobj                           0x0002c0e8   ARM Code      24  ff.o(.text)
    f_mount                                  0x0002c100   ARM Code     236  ff.o(.text)
    f_open                                   0x0002c1ec   ARM Code     684  ff.o(.text)
    f_read                                   0x0002c498   ARM Code     940  ff.o(.text)
    f_write                                  0x0002c844   ARM Code    1048  ff.o(.text)
    f_sync                                   0x0002cc5c   ARM Code     332  ff.o(.text)
    f_close                                  0x0002cda8   ARM Code      84  ff.o(.text)
    f_chdrive                                0x0002cdfc   ARM Code      48  ff.o(.text)
    f_chdir                                  0x0002ce2c   ARM Code     180  ff.o(.text)
    f_lseek                                  0x0002cee0   ARM Code     876  ff.o(.text)
    f_opendir                                0x0002d24c   ARM Code     244  ff.o(.text)
    f_closedir                               0x0002d340   ARM Code      64  ff.o(.text)
    f_readdir                                0x0002d380   ARM Code     196  ff.o(.text)
    f_findnext                               0x0002d444   ARM Code     152  ff.o(.text)
    f_findfirst                              0x0002d4dc   ARM Code      72  ff.o(.text)
    f_stat                                   0x0002d524   ARM Code     148  ff.o(.text)
    f_getfree                                0x0002d5b8   ARM Code     508  ff.o(.text)
    f_truncate                               0x0002d7b4   ARM Code     364  ff.o(.text)
    f_unlink                                 0x0002d920   ARM Code     404  ff.o(.text)
    f_mkdir                                  0x0002dab4   ARM Code     736  ff.o(.text)
    f_chmod                                  0x0002dd94   ARM Code     220  ff.o(.text)
    f_rename                                 0x0002de70   ARM Code     580  ff.o(.text)
    f_utime                                  0x0002e0b4   ARM Code     232  ff.o(.text)
    f_mkfs                                   0x0002e19c   ARM Code    2876  ff.o(.text)
    cJSON_GetErrorPtr                        0x0002ecd8   ARM Code      12  cjson.o(.text)
    cJSON_Version                            0x0002ece4   ARM Code       8  cjson.o(.text)
    cJSON_Delete                             0x0002ee18   ARM Code     164  cjson.o(.text)
    cJSON_SetNumberHelper                    0x0002ef74   ARM Code     112  cjson.o(.text)
    cJSON_ParseWithOpts                      0x000300ac   ARM Code     200  cjson.o(.text)
    cJSON_Parse                              0x00030174   ARM Code      48  cjson.o(.text)
    cJSON_Print                              0x00031058   ARM Code      32  cjson.o(.text)
    cJSON_PrintUnformatted                   0x00031078   ARM Code      40  cjson.o(.text)
    cJSON_PrintBuffered                      0x000310a0   ARM Code     116  cjson.o(.text)
    cJSON_PrintPreallocated                  0x00031114   ARM Code     108  cjson.o(.text)
    cJSON_GetArraySize                       0x00031180   ARM Code      36  cjson.o(.text)
    cJSON_GetArrayItem                       0x000311a4   ARM Code      60  cjson.o(.text)
    cJSON_GetObjectItem                      0x000311e0   ARM Code      80  cjson.o(.text)
    cJSON_HasObjectItem                      0x00031230   ARM Code      48  cjson.o(.text)
    cJSON_AddItemToArray                     0x000312c4   ARM Code      96  cjson.o(.text)
    cJSON_AddItemToObjectCS                  0x00031324   ARM Code     104  cjson.o(.text)
    cJSON_AddItemToObject                    0x0003138c   ARM Code      60  cjson.o(.text)
    cJSON_AddItemReferenceToArray            0x000313c8   ARM Code      40  cjson.o(.text)
    cJSON_AddItemReferenceToObject           0x000313f0   ARM Code      48  cjson.o(.text)
    cJSON_DetachItemFromArray                0x000314ac   ARM Code      44  cjson.o(.text)
    cJSON_DeleteItemFromArray                0x000314d8   ARM Code      36  cjson.o(.text)
    cJSON_DetachItemFromObject               0x000314fc   ARM Code      92  cjson.o(.text)
    cJSON_DeleteItemFromObject               0x00031558   ARM Code      36  cjson.o(.text)
    cJSON_InsertItemInArray                  0x0003157c   ARM Code     124  cjson.o(.text)
    cJSON_ReplaceItemInArray                 0x00031690   ARM Code      52  cjson.o(.text)
    cJSON_ReplaceItemInObject                0x000316c4   ARM Code     144  cjson.o(.text)
    cJSON_CreateNull                         0x00031754   ARM Code      36  cjson.o(.text)
    cJSON_CreateTrue                         0x00031778   ARM Code      36  cjson.o(.text)
    cJSON_CreateFalse                        0x0003179c   ARM Code      36  cjson.o(.text)
    cJSON_CreateBool                         0x000317c0   ARM Code      56  cjson.o(.text)
    cJSON_CreateNumber                       0x000317f8   ARM Code     140  cjson.o(.text)
    cJSON_CreateString                       0x00031884   ARM Code      80  cjson.o(.text)
    cJSON_CreateRaw                          0x000318d4   ARM Code      80  cjson.o(.text)
    cJSON_CreateArray                        0x00031924   ARM Code      36  cjson.o(.text)
    cJSON_CreateObject                       0x00031948   ARM Code      36  cjson.o(.text)
    cJSON_CreateIntArray                     0x0003196c   ARM Code     164  cjson.o(.text)
    cJSON_CreateFloatArray                   0x00031a10   ARM Code     164  cjson.o(.text)
    cJSON_CreateDoubleArray                  0x00031ab4   ARM Code     168  cjson.o(.text)
    cJSON_CreateStringArray                  0x00031b5c   ARM Code     176  cjson.o(.text)
    cJSON_Duplicate                          0x00031c0c   ARM Code     320  cjson.o(.text)
    cJSON_Minify                             0x00031d4c   ARM Code     344  cjson.o(.text)
    atCmdProcessReadData                     0x00032240   ARM Code     728  atcmdparser.o(.text)
    ATCmdSetReceiveDebugFlag                 0x00032518   ARM Code      12  atcmdparser.o(.text)
    ATCmdGetReceiveDebugFlag                 0x00032524   ARM Code      12  atcmdparser.o(.text)
    ATCmdDataTempBuffer                      0x00032530   ARM Code      32  atcmdparser.o(.text)
    ATCmdDataTempBuffer2                     0x00032550   ARM Code      32  atcmdparser.o(.text)
    QModemFlushBuffer                        0x00032808   ARM Code      48  quentelmodemlib.o(.text)
    QModemAbortDataMode                      0x00032838   ARM Code      36  quentelmodemlib.o(.text)
    QModemTotalStop                          0x00032f14   ARM Code     112  quentelmodemlib.o(.text)
    QModemLibInit                            0x00032f84   ARM Code     428  quentelmodemlib.o(.text)
    QModemDialupStart                        0x00033130   ARM Code     136  quentelmodemlib.o(.text)
    QModemFtpClientStart                     0x000331b8   ARM Code      40  quentelmodemlib.o(.text)
    QModemDialupProcess                      0x000331e0   ARM Code     120  quentelmodemlib.o(.text)
    QModemFtpClientProcess                   0x00033258   ARM Code     120  quentelmodemlib.o(.text)
    QModemDialupStageIndex                   0x000332d0   ARM Code      12  quentelmodemlib.o(.text)
    QModemFtpStageIndex                      0x000332dc   ARM Code      12  quentelmodemlib.o(.text)
    FtpClientSendFile                        0x000332e8   ARM Code    1564  quentelmodemlib.o(.text)
    FtpClientGetFile                         0x00033904   ARM Code     296  quentelmodemlib.o(.text)
    WebPostMessage                           0x00033a2c   ARM Code     780  quentelmodemlib.o(.text)
    FtpClientClose                           0x00033d38   ARM Code      56  quentelmodemlib.o(.text)
    FtpQueryCsq                              0x00033d70   ARM Code     144  quentelmodemlib.o(.text)
    add_mtd_device                           0x00033ec0   ARM Code     120  mtdcore.o(.text)
    del_mtd_device                           0x00033f38   ARM Code     104  mtdcore.o(.text)
    get_mtd_device                           0x00033fa0   ARM Code     156  mtdcore.o(.text)
    get_mtd_device_nm                        0x0003403c   ARM Code     268  mtdcore.o(.text)
    put_mtd_device                           0x00034148   ARM Code      68  mtdcore.o(.text)
    mtd_erase_callback                       0x00034718   ARM Code     160  mtdpart.o(.text)
    del_mtd_partitions                       0x00034960   ARM Code     148  mtdpart.o(.text)
    add_mtd_partitions                       0x00035110   ARM Code     296  mtdpart.o(.text)
    nand_register                            0x0003526c   ARM Code     168  nand.o(.text)
    nand_init                                0x00035398   ARM Code      60  nand.o(.text)
    nand_read_byte                           0x0003554c   ARM Code      20  nand_base.o(.text)
    nand_write_buf                           0x00035604   ARM Code      48  nand_base.o(.text)
    nand_read_buf                            0x00035634   ARM Code      48  nand_base.o(.text)
    nand_write_buf16                         0x000356ac   ARM Code      60  nand_base.o(.text)
    nand_read_buf16                          0x000356e8   ARM Code      60  nand_base.o(.text)
    nand_wait_ready                          0x00035f64   ARM Code      92  nand_base.o(.text)
    nand_erase_nand                          0x0003892c   ARM Code    1124  nand_base.o(.text)
    nand_scan_ident                          0x000397dc   ARM Code     328  nand_base.o(.text)
    nand_scan_tail                           0x00039924   ARM Code    2560  nand_base.o(.text)
    nand_scan                                0x0003a324   ARM Code      60  nand_base.o(.text)
    nand_release                             0x0003a360   ARM Code     112  nand_base.o(.text)
    nand_update_bbt                          0x0003c07c   ARM Code     416  nand_bbt.o(.text)
    nand_scan_bbt                            0x0003c634   ARM Code     484  nand_bbt.o(.text)
    nand_default_bbt                         0x0003c99c   ARM Code     416  nand_bbt.o(.text)
    nand_isbad_bbt                           0x0003cb3c   ARM Code     180  nand_bbt.o(.text)
    yaffs_alloc_raw_tnode                    0x0003cf10   ARM Code     128  yaffs_allocator.o(.text)
    yaffs_free_raw_tnode                     0x0003cf90   ARM Code     100  yaffs_allocator.o(.text)
    yaffs_alloc_raw_obj                      0x0003d1e4   ARM Code     168  yaffs_allocator.o(.text)
    yaffs_free_raw_obj                       0x0003d28c   ARM Code      84  yaffs_allocator.o(.text)
    yaffs_deinit_raw_tnodes_and_objs         0x0003d2e0   ARM Code      88  yaffs_allocator.o(.text)
    yaffs_init_raw_tnodes_and_objs           0x0003d338   ARM Code     160  yaffs_allocator.o(.text)
    yaffs_load_attribs                       0x0003d3f8   ARM Code      52  yaffs_attribs.o(.text)
    yaffs_load_attribs_oh                    0x0003d42c   ARM Code      52  yaffs_attribs.o(.text)
    yaffs_load_current_time                  0x0003d460   ARM Code      60  yaffs_attribs.o(.text)
    yaffs_attribs_init                       0x0003d49c   ARM Code      52  yaffs_attribs.o(.text)
    yaffs_get_file_size                      0x0003d4d0   ARM Code     144  yaffs_attribs.o(.text)
    yaffs_set_attribs                        0x0003d560   ARM Code     180  yaffs_attribs.o(.text)
    yaffs_get_attribs                        0x0003d614   ARM Code     116  yaffs_attribs.o(.text)
    yaffs_verify_chunk_bit_id                0x0003d6f8   ARM Code     120  yaffs_bitmap.o(.text)
    yaffs_clear_chunk_bits                   0x0003d770   ARM Code      44  yaffs_bitmap.o(.text)
    yaffs_clear_chunk_bit                    0x0003d79c   ARM Code      92  yaffs_bitmap.o(.text)
    yaffs_set_chunk_bit                      0x0003d7f8   ARM Code     252  yaffs_bitmap.o(.text)
    yaffs_check_chunk_bit                    0x0003d8f4   ARM Code      96  yaffs_bitmap.o(.text)
    yaffs_still_some_chunks                  0x0003d954   ARM Code      84  yaffs_bitmap.o(.text)
    yaffs_count_chunk_bits                   0x0003d9a8   ARM Code     124  yaffs_bitmap.o(.text)
    yaffs2_checkpt_open                      0x0003df0c   ARM Code     564  yaffs_checkptrw.o(.text)
    yaffs2_get_checkpt_sum                   0x0003e140   ARM Code      28  yaffs_checkptrw.o(.text)
    yaffs2_checkpt_wr                        0x0003e2c4   ARM Code     216  yaffs_checkptrw.o(.text)
    yaffs2_checkpt_rd                        0x0003e39c   ARM Code     496  yaffs_checkptrw.o(.text)
    yaffs_checkpt_close                      0x0003e58c   ARM Code     316  yaffs_checkptrw.o(.text)
    yaffs2_checkpt_invalidate_stream         0x0003e6c8   ARM Code      48  yaffs_checkptrw.o(.text)
    yaffs_ecc_calc                           0x0003e7ec   ARM Code     324  yaffs_ecc.o(.text)
    yaffs_ecc_correct                        0x0003e930   ARM Code     376  yaffs_ecc.o(.text)
    yaffs_ecc_calc_other                     0x0003eaa8   ARM Code     104  yaffs_ecc.o(.text)
    yaffs_ecc_correct_other                  0x0003eb10   ARM Code     256  yaffs_ecc.o(.text)
    yaffs_addr_to_chunk                      0x0003ecd0   ARM Code     128  yaffs_guts.o(.text)
    yaffs_get_temp_buffer                    0x0003edc0   ARM Code     336  yaffs_guts.o(.text)
    yaffs_release_temp_buffer                0x0003ef10   ARM Code     140  yaffs_guts.o(.text)
    yaffs_is_managed_tmp_buffer              0x0003ef9c   ARM Code     164  yaffs_guts.o(.text)
    yaffs_handle_chunk_error                 0x0003f064   ARM Code     148  yaffs_guts.o(.text)
    yaffs_skip_rest_of_block                 0x0003f0f8   ARM Code      80  yaffs_guts.o(.text)
    yaffs_check_ff                           0x0003f370   ARM Code      52  yaffs_guts.o(.text)
    yaffs_block_became_dirty                 0x0003f440   ARM Code     808  yaffs_guts.o(.text)
    yaffs_chunk_del                          0x0003f768   ARM Code     524  yaffs_guts.o(.text)
    yaffs_root                               0x0003faa0   ARM Code      12  yaffs_guts.o(.text)
    yaffs_lost_n_found                       0x0003faac   ARM Code      12  yaffs_guts.o(.text)
    yaffs_check_alloc_available              0x0003fb58   ARM Code      72  yaffs_guts.o(.text)
    yaffs_set_obj_name                       0x00040148   ARM Code     224  yaffs_guts.o(.text)
    yaffs_set_obj_name_from_oh               0x00040228   ARM Code      28  yaffs_guts.o(.text)
    yaffs_max_file_size                      0x00040244   ARM Code      20  yaffs_guts.o(.text)
    yaffs_get_tnode                          0x00040258   ARM Code      68  yaffs_guts.o(.text)
    yaffs_load_tnode_0                       0x000402ec   ARM Code     152  yaffs_guts.o(.text)
    yaffs_get_group_base                     0x00040384   ARM Code      96  yaffs_guts.o(.text)
    yaffs_find_tnode_0                       0x000403e4   ARM Code     168  yaffs_guts.o(.text)
    yaffs_add_find_tnode_0                   0x0004048c   ARM Code     476  yaffs_guts.o(.text)
    yaffs_put_chunk_in_file                  0x000408b8   ARM Code     452  yaffs_guts.o(.text)
    yaffs_add_obj_to_dir                     0x00040d48   ARM Code     300  yaffs_guts.o(.text)
    yaffs_oh_size_load                       0x00040f7c   ARM Code      88  yaffs_guts.o(.text)
    yaffs_clone_str                          0x00040ffc   ARM Code     112  yaffs_guts.o(.text)
    yaffs_find_by_number                     0x00041374   ARM Code     120  yaffs_guts.o(.text)
    yaffs_update_oh                          0x00042234   ARM Code    1072  yaffs_guts.o(.text)
    yaffs_get_obj_name                       0x00042744   ARM Code     260  yaffs_guts.o(.text)
    yaffs_find_by_name                       0x00042848   ARM Code     520  yaffs_guts.o(.text)
    yaffs_flush_whole_cache                  0x00042e10   ARM Code     244  yaffs_guts.o(.text)
    yaffs_handle_defered_free                0x000431b4   ARM Code      36  yaffs_guts.o(.text)
    yaffs_new_obj                            0x00043690   ARM Code     376  yaffs_guts.o(.text)
    yaffs_find_or_create_by_number           0x00043914   ARM Code      80  yaffs_guts.o(.text)
    yaffs_update_dirty_dirs                  0x00043a0c   ARM Code     156  yaffs_guts.o(.text)
    yaffs_is_non_empty_dir                   0x00043ae8   ARM Code      60  yaffs_guts.o(.text)
    yaffs_resize_file_down                   0x00043de0   ARM Code     200  yaffs_guts.o(.text)
    yaffs_resize_file                        0x00043ea8   ARM Code     300  yaffs_guts.o(.text)
    yaffs_del_file                           0x000440bc   ARM Code     244  yaffs_guts.o(.text)
    yaffs_del_obj                            0x000441b0   ARM Code     336  yaffs_guts.o(.text)
    yaffs_create_file                        0x000444ac   ARM Code      80  yaffs_guts.o(.text)
    yaffs_create_dir                         0x000444fc   ARM Code      80  yaffs_guts.o(.text)
    yaffs_create_special                     0x0004454c   ARM Code      80  yaffs_guts.o(.text)
    yaffs_create_symlink                     0x0004459c   ARM Code      80  yaffs_guts.o(.text)
    yaffs_get_equivalent_obj                 0x000445ec   ARM Code      48  yaffs_guts.o(.text)
    yaffs_link_obj                           0x0004461c   ARM Code     100  yaffs_guts.o(.text)
    yaffs_bg_gc                              0x00044834   ARM Code      96  yaffs_guts.o(.text)
    yaffs_set_xattrib                        0x00044aa0   ARM Code      52  yaffs_guts.o(.text)
    yaffs_remove_xattrib                     0x00044ad4   ARM Code      48  yaffs_guts.o(.text)
    yaffs_get_xattrib                        0x00044b04   ARM Code      44  yaffs_guts.o(.text)
    yaffs_list_xattrib                       0x00044b30   ARM Code      40  yaffs_guts.o(.text)
    yaffs_file_rd                            0x00044b58   ARM Code     428  yaffs_guts.o(.text)
    yaffs_do_file_wr                         0x00044d04   ARM Code    1100  yaffs_guts.o(.text)
    yaffs_wr_file                            0x00045150   ARM Code      68  yaffs_guts.o(.text)
    yaffs_flush_file                         0x00045194   ARM Code     132  yaffs_guts.o(.text)
    yaffs_unlinker                           0x000453ec   ARM Code      40  yaffs_guts.o(.text)
    yaffs_rename_obj                         0x00045414   ARM Code     444  yaffs_guts.o(.text)
    yaffs_handle_shadowed_obj                0x000455d0   ARM Code     140  yaffs_guts.o(.text)
    yaffs_link_fixup                         0x0004565c   ARM Code     128  yaffs_guts.o(.text)
    yaffs_get_obj_length                     0x000459a0   ARM Code     132  yaffs_guts.o(.text)
    yaffs_get_obj_link_count                 0x00045a24   ARM Code      60  yaffs_guts.o(.text)
    yaffs_get_obj_inode                      0x00045a60   ARM Code      28  yaffs_guts.o(.text)
    yaffs_get_obj_type                       0x00045a7c   ARM Code     336  yaffs_guts.o(.text)
    yaffs_get_symlink_alias                  0x00045bcc   ARM Code      56  yaffs_guts.o(.text)
    yaffs_deinitialise                       0x00045d94   ARM Code     236  yaffs_guts.o(.text)
    yaffs_guts_initialise                    0x00045e80   ARM Code    2240  yaffs_guts.o(.text)
    yaffs_count_free_chunks                  0x00046740   ARM Code     164  yaffs_guts.o(.text)
    yaffs_get_n_free_chunks                  0x000467e4   ARM Code     144  yaffs_guts.o(.text)
    yaffs_oh_to_size                         0x00046874   ARM Code     156  yaffs_guts.o(.text)
    YAFFS_InitializeMemoryPool               0x00046930   ARM Code     120  yaffs_malloc.o(.text)
    yaffs_malloc                             0x000469a8   ARM Code     876  yaffs_malloc.o(.text)
    yaffs_free                               0x00046d14   ARM Code     264  yaffs_malloc.o(.text)
    yaffs_bug_fn                             0x00046e1c   ARM Code      32  yaffs_malloc.o(.text)
    yaffsfs_SetError                         0x00046e3c   ARM Code      12  yaffs_malloc.o(.text)
    yaffsfs_GetLastError                     0x00046e48   ARM Code      12  yaffs_malloc.o(.text)
    yaffsfs_GetError                         0x00046e54   ARM Code      12  yaffs_malloc.o(.text)
    yaffsfs_Lock                             0x00046e60   ARM Code       4  yaffs_malloc.o(.text)
    yaffsfs_Unlock                           0x00046e64   ARM Code       4  yaffs_malloc.o(.text)
    yaffsfs_CurrentTime                      0x00046e68   ARM Code       8  yaffs_malloc.o(.text)
    yaffsfs_LocalInitialisation              0x00046e70   ARM Code       4  yaffs_malloc.o(.text)
    nandmtd_WriteChunkToNAND                 0x00046ef4   ARM Code     272  yaffs_mtdif.o(.text)
    nandmtd_ReadChunkFromNAND                0x00047004   ARM Code     284  yaffs_mtdif.o(.text)
    nandmtd_EraseBlockInNAND                 0x00047120   ARM Code     152  yaffs_mtdif.o(.text)
    nandmtd_InitialiseNAND                   0x000471b8   ARM Code      12  yaffs_mtdif.o(.text)
    nandmtd2_write_chunk_tags                0x00047318   ARM Code     416  yaffs_mtdif2.o(.text)
    nandmtd2_read_chunk_tags                 0x000474b8   ARM Code     828  yaffs_mtdif2.o(.text)
    nandmtd2_MarkNANDBlockBad                0x000477f4   ARM Code     112  yaffs_mtdif2.o(.text)
    nandmtd2_QueryNANDBlock                  0x00047864   ARM Code     288  yaffs_mtdif2.o(.text)
    nval_del                                 0x00047b64   ARM Code     140  yaffs_nameval.o(.text)
    nval_set                                 0x00047bf0   ARM Code     324  yaffs_nameval.o(.text)
    nval_get                                 0x00047d34   ARM Code     240  yaffs_nameval.o(.text)
    nval_list                                0x00047e24   ARM Code     276  yaffs_nameval.o(.text)
    nval_hasvalues                           0x00047f38   ARM Code      48  yaffs_nameval.o(.text)
    yaffs_rd_chunk_tags_nand                 0x00047f68   ARM Code     284  yaffs_nand.o(.text)
    yaffs_wr_chunk_tags_nand                 0x00048084   ARM Code     516  yaffs_nand.o(.text)
    yaffs_mark_bad                           0x00048288   ARM Code      68  yaffs_nand.o(.text)
    yaffs_query_init_block_state             0x000482cc   ARM Code      92  yaffs_nand.o(.text)
    yaffs_erase_block                        0x00048328   ARM Code      60  yaffs_nand.o(.text)
    yaffs_init_nand                          0x00048364   ARM Code      44  yaffs_nand.o(.text)
    yaffs_pack_tags2_tags_only               0x0004849c   ARM Code     224  yaffs_packedtags2.o(.text)
    yaffs_pack_tags2                         0x0004857c   ARM Code     116  yaffs_packedtags2.o(.text)
    yaffs_unpack_tags2_tags_only             0x000485f0   ARM Code     260  yaffs_packedtags2.o(.text)
    yaffs_unpack_tags2                       0x000486f4   ARM Code     200  yaffs_packedtags2.o(.text)
    yaffs_qsort                              0x000488e0   ARM Code    1292  yaffs_qsort.o(.text)
    yaffs_summary_deinit                     0x00048e8c   ARM Code      48  yaffs_summary.o(.text)
    yaffs_summary_init                       0x00048ebc   ARM Code     148  yaffs_summary.o(.text)
    yaffs_summary_read                       0x000491dc   ARM Code     544  yaffs_summary.o(.text)
    yaffs_summary_add                        0x000493fc   ARM Code     192  yaffs_summary.o(.text)
    yaffs_summary_fetch                      0x000494bc   ARM Code     104  yaffs_summary.o(.text)
    yaffs_summary_gc                         0x00049524   ARM Code     176  yaffs_summary.o(.text)
    yaffs_calc_ecc                           0x0004960c   ARM Code      40  yaffs_tagscompat.o(.text)
    yaffs_calc_tags_ecc                      0x00049634   ARM Code     124  yaffs_tagscompat.o(.text)
    yaffs_check_tags_ecc                     0x000496b0   ARM Code     128  yaffs_tagscompat.o(.text)
    yaffs_tags_compat_wr                     0x00049ef4   ARM Code     312  yaffs_tagscompat.o(.text)
    yaffs_tags_compat_rd                     0x0004a02c   ARM Code     428  yaffs_tagscompat.o(.text)
    yaffs_tags_compat_mark_bad               0x0004a1d8   ARM Code     100  yaffs_tagscompat.o(.text)
    yaffs_tags_compat_query_block            0x0004a23c   ARM Code     252  yaffs_tagscompat.o(.text)
    yaffs_skip_verification                  0x0004a340   ARM Code      40  yaffs_verify.o(.text)
    yaffs_verify_blk                         0x0004a3a0   ARM Code     456  yaffs_verify.o(.text)
    yaffs_verify_collected_blk               0x0004a568   ARM Code     264  yaffs_verify.o(.text)
    yaffs_verify_blocks                      0x0004a670   ARM Code     972  yaffs_verify.o(.text)
    yaffs_verify_oh                          0x0004aa3c   ARM Code     852  yaffs_verify.o(.text)
    yaffs_verify_file                        0x0004ad90   ARM Code     348  yaffs_verify.o(.text)
    yaffs_verify_link                        0x0004aeec   ARM Code      44  yaffs_verify.o(.text)
    yaffs_verify_symlink                     0x0004af18   ARM Code      44  yaffs_verify.o(.text)
    yaffs_verify_special                     0x0004af44   ARM Code      44  yaffs_verify.o(.text)
    yaffs_verify_obj_in_dir                  0x0004af70   ARM Code     344  yaffs_verify.o(.text)
    yaffs_verify_dir                         0x0004b0c8   ARM Code     492  yaffs_verify.o(.text)
    yaffs_verify_obj                         0x0004b2b4   ARM Code    1028  yaffs_verify.o(.text)
    yaffs_verify_objects                     0x0004b6b8   ARM Code     108  yaffs_verify.o(.text)
    yaffs_verify_free_chunks                 0x0004b724   ARM Code     120  yaffs_verify.o(.text)
    yaffs_verify_file_sane                   0x0004b79c   ARM Code      16  yaffs_verify.o(.text)
    yaffs1_scan                              0x0004b80c   ARM Code    2712  yaffs_yaffs1.o(.text)
    yaffs_calc_oldest_dirty_seq              0x0004c2dc   ARM Code     160  yaffs_yaffs2.o(.text)
    yaffs2_find_oldest_dirty_seq             0x0004c37c   ARM Code      52  yaffs_yaffs2.o(.text)
    yaffs2_clear_oldest_dirty_seq            0x0004c3b0   ARM Code      60  yaffs_yaffs2.o(.text)
    yaffs2_update_oldest_dirty_seq           0x0004c3ec   ARM Code      64  yaffs_yaffs2.o(.text)
    yaffs_block_ok_for_gc                    0x0004c42c   ARM Code      92  yaffs_yaffs2.o(.text)
    yaffs2_find_refresh_block                0x0004c488   ARM Code     248  yaffs_yaffs2.o(.text)
    yaffs2_checkpt_required                  0x0004c580   ARM Code      88  yaffs_yaffs2.o(.text)
    yaffs_calc_checkpt_blocks_required       0x0004c5d8   ARM Code     192  yaffs_yaffs2.o(.text)
    yaffs2_checkpt_invalidate                0x0004d8e4   ARM Code      76  yaffs_yaffs2.o(.text)
    yaffs_checkpoint_save                    0x0004d930   ARM Code     128  yaffs_yaffs2.o(.text)
    yaffs2_checkpt_restore                   0x0004d9b0   ARM Code     120  yaffs_yaffs2.o(.text)
    yaffs2_handle_hole                       0x0004da28   ARM Code     720  yaffs_yaffs2.o(.text)
    yaffs2_scan_backwards                    0x0004e794   ARM Code    1916  yaffs_yaffs2.o(.text)
    yaffs_set_trace                          0x0004ef28   ARM Code      20  yaffsfs.o(.text)
    yaffs_get_trace                          0x0004ef3c   ARM Code      12  yaffsfs.o(.text)
    yaffsfs_Match                            0x0004f5dc   ARM Code      28  yaffsfs.o(.text)
    yaffsfs_IsPathDivider                    0x0004f5f8   ARM Code      56  yaffsfs.o(.text)
    yaffsfs_CheckNameLength                  0x0004f630   ARM Code     100  yaffsfs.o(.text)
    yaffs_dup                                0x0004fd0c   ARM Code     196  yaffsfs.o(.text)
    yaffs_open_sharing                       0x0004fe08   ARM Code    1640  yaffsfs.o(.text)
    yaffs_open                               0x00050470   ARM Code      40  yaffsfs.o(.text)
    yaffs_Dofsync                            0x00050498   ARM Code     112  yaffsfs.o(.text)
    yaffs_fsync                              0x00050508   ARM Code      24  yaffsfs.o(.text)
    yaffs_flush                              0x00050520   ARM Code      20  yaffsfs.o(.text)
    yaffs_fdatasync                          0x00050534   ARM Code      24  yaffsfs.o(.text)
    yaffs_close                              0x0005054c   ARM Code     116  yaffsfs.o(.text)
    yaffsfs_do_read                          0x000505c0   ARM Code     760  yaffsfs.o(.text)
    yaffs_read                               0x000508b8   ARM Code      52  yaffsfs.o(.text)
    yaffs_pread                              0x000508ec   ARM Code      48  yaffsfs.o(.text)
    yaffsfs_do_write                         0x0005091c   ARM Code     736  yaffsfs.o(.text)
    yaffs_write                              0x00050bfc   ARM Code      52  yaffsfs.o(.text)
    yaffs_pwrite                             0x00050c30   ARM Code      48  yaffsfs.o(.text)
    yaffs_truncate                           0x00050c60   ARM Code     444  yaffsfs.o(.text)
    yaffs_ftruncate                          0x00050e1c   ARM Code     236  yaffsfs.o(.text)
    yaffs_lseek                              0x00050f08   ARM Code     392  yaffsfs.o(.text)
    yaffsfs_DoUnlink                         0x00051090   ARM Code     520  yaffsfs.o(.text)
    yaffs_unlink                             0x00051298   ARM Code      24  yaffsfs.o(.text)
    yaffs_rename                             0x000512b0   ARM Code     812  yaffsfs.o(.text)
    yaffs_stat                               0x00051844   ARM Code      32  yaffsfs.o(.text)
    yaffs_lstat                              0x00051864   ARM Code      32  yaffsfs.o(.text)
    yaffs_fstat                              0x00051884   ARM Code     104  yaffsfs.o(.text)
    yaffs_utime                              0x000519a4   ARM Code     272  yaffsfs.o(.text)
    yaffs_futime                             0x00051ab4   ARM Code      80  yaffsfs.o(.text)
    yaffs_setxattr                           0x00051c64   ARM Code      60  yaffsfs.o(.text)
    yaffs_lsetxattr                          0x00051ca0   ARM Code      60  yaffsfs.o(.text)
    yaffs_fsetxattr                          0x00051cdc   ARM Code     156  yaffsfs.o(.text)
    yaffs_getxattr                           0x00051ed4   ARM Code      52  yaffsfs.o(.text)
    yaffs_lgetxattr                          0x00051f08   ARM Code      52  yaffsfs.o(.text)
    yaffs_fgetxattr                          0x00051f3c   ARM Code     148  yaffsfs.o(.text)
    yaffs_listxattr                          0x00052124   ARM Code      40  yaffsfs.o(.text)
    yaffs_llistxattr                         0x0005214c   ARM Code      40  yaffsfs.o(.text)
    yaffs_flistxattr                         0x00052174   ARM Code     132  yaffsfs.o(.text)
    yaffs_removexattr                        0x00052344   ARM Code      32  yaffsfs.o(.text)
    yaffs_lremovexattr                       0x00052364   ARM Code      32  yaffsfs.o(.text)
    yaffs_fremovexattr                       0x00052384   ARM Code     124  yaffsfs.o(.text)
    yaffs_access                             0x00052468   ARM Code     440  yaffsfs.o(.text)
    yaffs_chmod                              0x00052620   ARM Code     344  yaffsfs.o(.text)
    yaffs_fchmod                             0x00052778   ARM Code     132  yaffsfs.o(.text)
    yaffs_mkdir                              0x000527fc   ARM Code     492  yaffsfs.o(.text)
    yaffs_rmdir                              0x000529e8   ARM Code     148  yaffsfs.o(.text)
    yaffs_getdev                             0x00052a7c   ARM Code      36  yaffsfs.o(.text)
    yaffs_mount_common                       0x00052aa0   ARM Code     304  yaffsfs.o(.text)
    yaffs_mount2                             0x00052bd0   ARM Code      32  yaffsfs.o(.text)
    yaffs_mount                              0x00052bf0   ARM Code      28  yaffsfs.o(.text)
    yaffs_sync                               0x00052c0c   ARM Code     224  yaffsfs.o(.text)
    yaffs_remount                            0x00052d38   ARM Code     240  yaffsfs.o(.text)
    yaffs_unmount2                           0x00052e28   ARM Code     232  yaffsfs.o(.text)
    yaffs_unmount                            0x00052f10   ARM Code      24  yaffsfs.o(.text)
    yaffs_freespace                          0x00052f28   ARM Code     200  yaffsfs.o(.text)
    yaffs_totalspace                         0x00052ff0   ARM Code     244  yaffsfs.o(.text)
    yaffs_inodecount                         0x000530e4   ARM Code     192  yaffsfs.o(.text)
    yaffs_add_device                         0x00053290   ARM Code     124  yaffsfs.o(.text)
    yaffs_remove_device                      0x0005330c   ARM Code      36  yaffsfs.o(.text)
    yaffs_dev_rewind                         0x00053330   ARM Code      20  yaffsfs.o(.text)
    yaffs_next_dev                           0x00053344   ARM Code      92  yaffsfs.o(.text)
    yaffs_opendir                            0x00053410   ARM Code     480  yaffsfs.o(.text)
    yaffs_readdir                            0x000535f0   ARM Code     264  yaffsfs.o(.text)
    yaffs_rewinddir                          0x000536f8   ARM Code      32  yaffsfs.o(.text)
    yaffs_closedir                           0x00053718   ARM Code      72  yaffsfs.o(.text)
    yaffs_symlink                            0x00053760   ARM Code     496  yaffsfs.o(.text)
    yaffs_readlink                           0x00053950   ARM Code     300  yaffsfs.o(.text)
    yaffs_link                               0x00053a7c   ARM Code     584  yaffsfs.o(.text)
    yaffs_mknod                              0x00053cc4   ARM Code      44  yaffsfs.o(.text)
    yaffs_n_handles                          0x00053cf0   ARM Code     128  yaffsfs.o(.text)
    yaffs_get_error                          0x00053d70   ARM Code      12  yaffsfs.o(.text)
    yaffs_set_error                          0x00053d7c   ARM Code      24  yaffsfs.o(.text)
    yaffs_dump_dev                           0x00053d94   ARM Code      16  yaffsfs.o(.text)
    udelay                                   0x00053dd8   ARM Code      64  fmi_nand.o(.text)
    get_timer                                0x00053e18   ARM Code      24  fmi_nand.o(.text)
    nuc970_nand_enable_hwecc                 0x000541c0   ARM Code       4  fmi_nand.o(.text)
    fmiSM_CorrectData_BCH                    0x000541dc   ARM Code    1052  fmi_nand.o(.text)
    fmiSMCorrectData                         0x000545f8   ARM Code     268  fmi_nand.o(.text)
    board_nand_init                          0x00054b14   ARM Code    1120  fmi_nand.o(.text)
    _showMacroMessage                        0x00054fbc   ARM Code      88  osmisc.o(.text)
    _showCurrentThreadMemoryInfo             0x00055014   ARM Code      56  osmisc.o(.text)
    _showCurrentThreadMemoryInfoEx           0x0005504c   ARM Code      72  osmisc.o(.text)
    _showFreeHeapSize                        0x00055094   ARM Code      56  osmisc.o(.text)
    _showMemoryInfo                          0x000550cc   ARM Code     604  osmisc.o(.text)
    vApplicationStackOverflowHook            0x00055328   ARM Code      44  osmisc.o(.text)
    vApplicationMallocFailedHook             0x00055354   ARM Code      32  osmisc.o(.text)
    GetFreeHeapSize                          0x00055374   ARM Code      12  osmisc.o(.text)
    vApplicationTickHook                     0x00055380   ARM Code       4  osmisc.o(.text)
    vApplicationIdleHook                     0x00055384   ARM Code      12  osmisc.o(.text)
    tickProcess                              0x00055390   ARM Code      24  osmisc.o(.text)
    initTimer                                0x000553a8   ARM Code      48  osmisc.o(.text)
    xQueueGenericReset                       0x00055484   ARM Code     184  queue.o(.text)
    xQueueGenericCreate                      0x00055584   ARM Code      92  queue.o(.text)
    xQueueGenericSend                        0x000557e8   ARM Code     376  queue.o(.text)
    xQueueCreateMutex                        0x00055998   ARM Code      52  queue.o(.text)
    xQueueCreateCountingSemaphore            0x000559cc   ARM Code      52  queue.o(.text)
    xQueueGenericSendFromISR                 0x00055a00   ARM Code     184  queue.o(.text)
    xQueueGiveFromISR                        0x00055ab8   ARM Code     160  queue.o(.text)
    xQueueGenericReceive                     0x00055bdc   ARM Code     484  queue.o(.text)
    xQueueReceiveFromISR                     0x00055dc0   ARM Code     172  queue.o(.text)
    xQueuePeekFromISR                        0x00055e6c   ARM Code      72  queue.o(.text)
    uxQueueMessagesWaiting                   0x00055eb4   ARM Code      28  queue.o(.text)
    uxQueueSpacesAvailable                   0x00055ed0   ARM Code      40  queue.o(.text)
    uxQueueMessagesWaitingFromISR            0x00055ef8   ARM Code      12  queue.o(.text)
    vQueueDelete                             0x00055f04   ARM Code      24  queue.o(.text)
    uxQueueGetQueueNumber                    0x00055f1c   ARM Code      12  queue.o(.text)
    vQueueSetQueueNumber                     0x00055f28   ARM Code       8  queue.o(.text)
    ucQueueGetQueueType                      0x00055f30   ARM Code      12  queue.o(.text)
    xQueueIsQueueEmptyFromISR                0x00055f3c   ARM Code      32  queue.o(.text)
    xQueueIsQueueFullFromISR                 0x00055f5c   ARM Code      36  queue.o(.text)
    xTaskCreate                              0x000561e4   ARM Code     164  tasks.o(.text)
    vTaskDelete                              0x000562fc   ARM Code     216  tasks.o(.text)
    xTaskIncrementTick                       0x000563d4   ARM Code     460  tasks.o(.text)
    xTaskResumeAll                           0x000565a0   ARM Code     344  tasks.o(.text)
    vTaskSuspendAll                          0x000567ac   ARM Code      24  tasks.o(.text)
    vTaskDelayUntil                          0x000567c4   ARM Code     148  tasks.o(.text)
    vTaskDelay                               0x00056858   ARM Code      60  tasks.o(.text)
    eTaskGetState                            0x00056894   ARM Code     168  tasks.o(.text)
    uxTaskPriorityGet                        0x0005693c   ARM Code      56  tasks.o(.text)
    uxTaskPriorityGetFromISR                 0x00056974   ARM Code      44  tasks.o(.text)
    vTaskSwitchContext                       0x000569a0   ARM Code     244  tasks.o(.text)
    vTaskSuspend                             0x00056a94   ARM Code     200  tasks.o(.text)
    vTaskResume                              0x00056bd8   ARM Code     156  tasks.o(.text)
    xTaskResumeFromISR                       0x00056c74   ARM Code     168  tasks.o(.text)
    vTaskStartScheduler                      0x00056e2c   ARM Code     108  tasks.o(.text)
    vTaskEndScheduler                        0x00056e98   ARM Code      36  tasks.o(.text)
    xTaskGetTickCount                        0x00056ebc   ARM Code      28  tasks.o(.text)
    xTaskGetTickCountFromISR                 0x00056ed8   ARM Code      16  tasks.o(.text)
    uxTaskGetNumberOfTasks                   0x00056ee8   ARM Code      12  tasks.o(.text)
    pcTaskGetName                            0x00056ef4   ARM Code      40  tasks.o(.text)
    vTaskGetInfo                             0x00056f4c   ARM Code     204  tasks.o(.text)
    uxTaskGetSystemState                     0x000570e0   ARM Code     224  tasks.o(.text)
    vTaskPlaceOnEventList                    0x000571c0   ARM Code      48  tasks.o(.text)
    vTaskPlaceOnUnorderedEventList           0x000571f0   ARM Code      68  tasks.o(.text)
    xTaskRemoveFromEventList                 0x00057234   ARM Code     176  tasks.o(.text)
    vTaskRemoveFromUnorderedEventList        0x000572e4   ARM Code     136  tasks.o(.text)
    vTaskSetTimeOutState                     0x0005736c   ARM Code      28  tasks.o(.text)
    xTaskCheckForTimeOut                     0x00057388   ARM Code     156  tasks.o(.text)
    vTaskMissedYield                         0x00057424   ARM Code      16  tasks.o(.text)
    uxTaskGetTaskNumber                      0x00057434   ARM Code      32  tasks.o(.text)
    vTaskSetTaskNumber                       0x00057454   ARM Code      20  tasks.o(.text)
    uxTaskGetStackHighWaterMark              0x00057468   ARM Code      60  tasks.o(.text)
    xTaskGetCurrentTaskHandle                0x000574a4   ARM Code      12  tasks.o(.text)
    vTaskPriorityInherit                     0x000574b0   ARM Code     228  tasks.o(.text)
    xTaskPriorityDisinherit                  0x00057594   ARM Code     160  tasks.o(.text)
    vTaskList                                0x00057680   ARM Code     356  tasks.o(.text)
    uxTaskResetEventItemValue                0x000577e4   ARM Code      44  tasks.o(.text)
    pvTaskIncrementMutexHeldCount            0x00057810   ARM Code      52  tasks.o(.text)
    ulTaskNotifyTake                         0x00057844   ARM Code     176  tasks.o(.text)
    xTaskNotifyWait                          0x000578f4   ARM Code     240  tasks.o(.text)
    xTaskGenericNotify                       0x000579e4   ARM Code     296  tasks.o(.text)
    xTaskGenericNotifyFromISR                0x00057b0c   ARM Code     360  tasks.o(.text)
    vTaskNotifyGiveFromISR                   0x00057c74   ARM Code     208  tasks.o(.text)
    xTaskNotifyStateClear                    0x00057d44   ARM Code      84  tasks.o(.text)
    pvPortMalloc                             0x00057f04   ARM Code     348  heap_4.o(.text)
    vPortFree                                0x00058060   ARM Code     124  heap_4.o(.text)
    xPortGetFreeHeapSize                     0x000580dc   ARM Code      12  heap_4.o(.text)
    xPortGetMinimumEverFreeHeapSize          0x000580e8   ARM Code      12  heap_4.o(.text)
    vPortInitialiseBlocks                    0x000580f4   ARM Code       4  heap_4.o(.text)
    vListInitialise                          0x00058110   ARM Code      44  list.o(.text)
    vListInitialiseItem                      0x0005813c   ARM Code      12  list.o(.text)
    vListInsertEnd                           0x00058148   ARM Code      48  list.o(.text)
    vListInsert                              0x00058178   ARM Code      96  list.o(.text)
    uxListRemove                             0x000581d8   ARM Code      76  list.o(.text)
    pxPortInitialiseStack                    0x00058224   ARM Code     216  port.o(.text)
    vPortEndScheduler                        0x000582fc   ARM Code       4  port.o(.text)
    xPortStartScheduler                      0x0005830c   ARM Code      20  port.o(.text)
    vPortEnterCritical                       0x00058320   ARM Code      36  port.o(.text)
    vPortExitCritical                        0x00058344   ARM Code      68  port.o(.text)
    free                                     0x000583a1   Thumb Code    76  h1_free.o(.text)
    __aeabi_uldivmod                         0x000583ec   ARM Code       0  lludiv5.o(.text)
    _ll_udiv                                 0x000583ec   ARM Code     752  lludiv5.o(.text)
    _ll_udiv_donemoving                      0x00058400   ARM Code       0  lludiv5.o(.text)
    __aeabi_llsl                             0x000586dc   ARM Code       0  llshl.o(.text)
    _ll_shift_l                              0x000586dc   ARM Code      40  llshl.o(.text)
    __aeabi_llsr                             0x00058704   ARM Code       0  llushr.o(.text)
    _ll_ushift_r                             0x00058704   ARM Code      40  llushr.o(.text)
    __aeabi_lasr                             0x0005872c   ARM Code       0  llsshr.o(.text)
    _ll_sshift_r                             0x0005872c   ARM Code      40  llsshr.o(.text)
    __aeabi_ldivmod                          0x00058754   ARM Code       0  llsdiv.o(.text)
    _ll_sdiv                                 0x00058754   ARM Code      80  llsdiv.o(.text)
    tolower                                  0x000587a5   Thumb Code    26  tolower.o(.text)
    __2sprintf                               0x000587c1   Thumb Code    40  __2sprintf.o(.text)
    _printf_pre_padding                      0x000587ed   Thumb Code    44  _printf_pad.o(.text)
    _printf_post_padding                     0x00058819   Thumb Code    34  _printf_pad.o(.text)
    _printf_str                              0x0005883b   Thumb Code    82  _printf_str.o(.text)
    Inline ARM to Thumb Veneer to _printf_int_dec 0x0005888c   ARM Code       8  _printf_dec.o(.text)
    _printf_int_dec                          0x00058895   Thumb Code    90  _printf_dec.o(.text)
    Inline ARM to Thumb Veneer to _printf_int_hex 0x00058900   ARM Code       8  _printf_hex_int.o(.text)
    _printf_int_hex                          0x00058909   Thumb Code    84  _printf_hex_int.o(.text)
    _printf_longlong_hex                     0x00058909   Thumb Code     0  _printf_hex_int.o(.text)
    __printf                                 0x00058961   Thumb Code   386  __printf_flags_ss_wp.o(.text)
    qsort                                    0x00058ce7   Thumb Code   138  qsortnoex.o(.text)
    strchr                                   0x00058d71   Thumb Code    22  strchr.o(.text)
    memcmp                                   0x00058d87   Thumb Code   116  memcmp.o(.text)
    strcpy                                   0x00058dfd   Thumb Code    72  strcpy.o(.text)
    strlen                                   0x00058e49   Thumb Code    62  strlen.o(.text)
    strncmp                                  0x00058e8d   Thumb Code   144  strncmp.o(.text)
    strcat                                   0x00058f21   Thumb Code    24  strcat.o(.text)
    __aeabi_memcpy                           0x00058f38   ARM Code       0  rt_memcpy.o(.text)
    __rt_memcpy                              0x00058f38   ARM Code     212  rt_memcpy.o(.text)
    _memcpy_lastbytes                        0x00058fec   ARM Code       0  rt_memcpy.o(.text)
    __aeabi_memcpy4                          0x0005900c   ARM Code       0  rt_memcpy_w.o(.text)
    __aeabi_memcpy8                          0x0005900c   ARM Code       0  rt_memcpy_w.o(.text)
    __rt_memcpy_w                            0x0005900c   ARM Code     100  rt_memcpy_w.o(.text)
    _memcpy_lastbytes_aligned                0x00059058   ARM Code       0  rt_memcpy_w.o(.text)
    __aeabi_memset                           0x00059070   ARM Code      16  aeabi_memset.o(.text)
    __aeabi_memclr                           0x00059080   ARM Code       0  rt_memclr.o(.text)
    __rt_memclr                              0x00059080   ARM Code      64  rt_memclr.o(.text)
    _memset                                  0x00059084   ARM Code       0  rt_memclr.o(.text)
    __aeabi_memclr4                          0x000590c0   ARM Code       0  rt_memclr_w.o(.text)
    __aeabi_memclr8                          0x000590c0   ARM Code       0  rt_memclr_w.o(.text)
    __rt_memclr_w                            0x000590c0   ARM Code      84  rt_memclr_w.o(.text)
    _memset_w                                0x000590c4   ARM Code       0  rt_memclr_w.o(.text)
    strncpy                                  0x00059114   ARM Code     104  strncpy.o(.text)
    strcmp                                   0x00059180   ARM Code     156  strcmp.o(.text)
    __aeabi_uread4                           0x00059220   ARM Code       0  uread4.o(.text)
    __rt_uread4                              0x00059220   ARM Code      32  uread4.o(.text)
    __aeabi_uwrite4                          0x00059240   ARM Code       0  uwrite4.o(.text)
    __rt_uwrite4                             0x00059240   ARM Code      32  uwrite4.o(.text)
    mktime                                   0x000592a1   Thumb Code   354  mktime.o(.text)
    __aeabi_idiv                             0x00059410   ARM Code       0  aeabi_sdiv.o(.text)
    __aeabi_idivmod                          0x00059410   ARM Code     380  aeabi_sdiv.o(.text)
    __rt_ctype_table                         0x0005958c   ARM Code      20  rt_ctype_table.o(.text)
    __rt_heap_descriptor                     0x000595a0   ARM Code      12  rt_heap_descriptor.o(.text)
    __aeabi_errno_addr                       0x000595ac   ARM Code      12  rt_errno_addr.o(.text)
    __errno                                  0x000595ac   ARM Code       0  rt_errno_addr.o(.text)
    __rt_errno_addr                          0x000595ac   ARM Code       0  rt_errno_addr.o(.text)
    _printf_int_common                       0x000595b9   Thumb Code   176  _printf_intcommon.o(.text)
    __lib_sel_fp_printf                      0x00059669   Thumb Code     2  _printf_fp_dec.o(.text)
    _printf_fp_dec_real                      0x00059805   Thumb Code   618  _printf_fp_dec.o(.text)
    _printf_char_common                      0x00059a87   Thumb Code    32  _printf_char_common.o(.text)
    _sputc                                   0x00059aad   Thumb Code    10  _sputc.o(.text)
    Inline ARM to Thumb Veneer to _printf_char 0x00059ab8   ARM Code       8  _printf_char.o(.text)
    _printf_cs_common                        0x00059ac1   Thumb Code    22  _printf_char.o(.text)
    _printf_char                             0x00059ad7   Thumb Code    16  _printf_char.o(.text)
    _printf_string                           0x00059ae7   Thumb Code     8  _printf_char.o(.text)
    __strtod_int                             0x00059b2d   Thumb Code    92  strtod.o(.text)
    __rt_udiv10                              0x00059b98   ARM Code      44  rtudiv10.o(.text)
    __rt_locale                              0x00059bc4   ARM Code      12  rt_locale.o(.text)
    _ll_udiv10                               0x00059bd0   ARM Code     152  lludiv10.o(.text)
    isspace                                  0x00059c69   Thumb Code    18  isspace.o(.text)
    _printf_fp_infnan                        0x00059c7d   Thumb Code   120  _printf_fp_infnan.o(.text)
    _sgetc                                   0x00059d05   Thumb Code    32  _sgetc.o(.text)
    _sbackspace                              0x00059d25   Thumb Code    36  _sgetc.o(.text)
    _btod_etento                             0x00059d49   Thumb Code   206  bigflt0.o(.text)
    _chval                                   0x00059e1d   Thumb Code    30  _chval.o(.text)
    _scanf_really_real                       0x0005a04d   Thumb Code   712  scanf_fp.o(.text)
    exit                                     0x0005a315   Thumb Code    12  exit.o(.text)
    __aeabi_lmul                             0x0005a320   ARM Code       0  llmul.o(.text)
    _ll_mul                                  0x0005a320   ARM Code      24  llmul.o(.text)
    Inline ARM to Thumb Veneer to __set_errno 0x0005a338   ARM Code       8  _rserrno.o(.text)
    __read_errno                             0x0005a341   Thumb Code    10  _rserrno.o(.text)
    __set_errno                              0x0005a34b   Thumb Code    12  _rserrno.o(.text)
    Inline ARM to Thumb Veneer to _scanf_really_hex_real 0x0005a358   ARM Code       8  scanf_hexfp.o(.text)
    _scanf_really_hex_real                   0x0005a361   Thumb Code   794  scanf_hexfp.o(.text)
    Inline ARM to Thumb Veneer to _scanf_really_infnan 0x0005a688   ARM Code       8  scanf_infnan.o(.text)
    _scanf_really_infnan                     0x0005a691   Thumb Code   302  scanf_infnan.o(.text)
    __aeabi_uidiv                            0x0005a7d0   ARM Code       0  aeabi_sdiv.o(.text_udiv)
    __aeabi_uidivmod                         0x0005a7d0   ARM Code      36  aeabi_sdiv.o(.text_udiv)
    _btod_d2e                                0x0005a7f4   ARM Code      56  btod.o(CL$$btod_d2e)
    _d2e_denorm_low                          0x0005a82c   ARM Code      84  btod.o(CL$$btod_d2e_denorm_low)
    _d2e_norm_op1                            0x0005a880   ARM Code     104  btod.o(CL$$btod_d2e_norm_op1)
    __btod_div_common                        0x0005a8e8   ARM Code     712  btod.o(CL$$btod_div_common)
    _e2d                                     0x0005ac30   ARM Code      88  btod.o(CL$$btod_e2d)
    _e2e                                     0x0005ac8c   ARM Code     220  btod.o(CL$$btod_e2e)
    _btod_ediv                               0x0005ad68   ARM Code      48  btod.o(CL$$btod_ediv)
    _btod_edivd                              0x0005ad98   ARM Code      48  btod.o(CL$$btod_edivd)
    _btod_emul                               0x0005adc8   ARM Code      48  btod.o(CL$$btod_emul)
    _btod_emuld                              0x0005adf8   ARM Code      48  btod.o(CL$$btod_emuld)
    __btod_mult_common                       0x0005ae28   ARM Code     612  btod.o(CL$$btod_mult_common)
    vPortStartFirstTask                      0x0005b08c   ARM Code       0  portasm.o(PORT_ASM)
    vPortYield2                              0x0005b0bc   ARM Code       0  portasm.o(PORT_ASM)
    vPortYieldProcessor                      0x0005b0c4   ARM Code       0  portasm.o(PORT_ASM)
    vFreeRTOS_ISR                            0x0005b150   ARM Code       0  portasm.o(PORT_ASM)
    sysSetupCP15                             0x0005b1dc   ARM Code       0  sys_nuc970.o(SYS_INIT)
    sys_flush_and_clean_dcache               0x0005b200   ARM Code       0  sys_nuc970.o(SYS_INIT)
    Long ARM to Thumb Veneer to _printf_string 0x0005b20c   ARM Code       8  anon$$obj.o(Veneer$$Code)
    Long ARM to Thumb Veneer to _printf_fp_dec_real 0x0005b214   ARM Code       8  anon$$obj.o(Veneer$$Code)
    Long ARM to Thumb Veneer to _scanf_really_real 0x0005b21c   ARM Code       8  anon$$obj.o(Veneer$$Code)
    __ARM_fpclassify                         0x0005b224   ARM Code      44  fpclassify.o(i.__ARM_fpclassify)
    __mathlib_dbl_underflow                  0x0005b254   ARM Code      16  dunder.o(i.__mathlib_dbl_underflow)
    __mathlib_narrow                         0x0005b268   ARM Code      24  narrow.o(i.__mathlib_narrow)
    __mathlib_tofloat                        0x0005b280   ARM Code     196  narrow.o(i.__mathlib_tofloat)
    __support_ldexp                          0x0005b350   ARM Code      32  ldexp.o(i.__support_ldexp)
    _is_digit                                0x0005b371   Thumb Code    14  __printf_wp.o(i._is_digit)
    floor                                    0x0005b380   ARM Code     284  floor.o(i.floor)
    frexp                                    0x0005b4b0   ARM Code     108  frexp.o(i.frexp)
    ldexp                                    0x0005b524   ARM Code     192  ldexp.o(i.ldexp)
    strtod                                   0x0005b5ec   ARM Code      48  strtod.o(i.strtod)
    _get_lc_ctype                            0x0005b61c   ARM Code      72  lc_ctype_c.o(locale$$code)
    _get_lc_numeric                          0x0005b664   ARM Code      72  lc_numeric_c.o(locale$$code)
    __aeabi_d2f                              0x0005b6ac   ARM Code       0  d2f.o(x$fpl$d2f)
    _d2f                                     0x0005b6ac   ARM Code     108  d2f.o(x$fpl$d2f)
    __aeabi_dadd                             0x0005b718   ARM Code       0  daddsub_clz.o(x$fpl$dadd)
    _dadd                                    0x0005b718   ARM Code     336  daddsub_clz.o(x$fpl$dadd)
    __fpl_dcheck_NaN1                        0x0005b86c   ARM Code      12  dcheck1.o(x$fpl$dcheck1)
    __fpl_dcmp_Inf                           0x0005b87c   ARM Code      28  dcmpi.o(x$fpl$dcmpinf)
    __aeabi_ddiv                             0x0005b898   ARM Code       0  ddiv.o(x$fpl$ddiv)
    _ddiv                                    0x0005b898   ARM Code     584  ddiv.o(x$fpl$ddiv)
    __aeabi_cdcmpeq                          0x0005bb68   ARM Code       0  deqf.o(x$fpl$deqf)
    _dcmpeq                                  0x0005bb68   ARM Code     148  deqf.o(x$fpl$deqf)
    __aeabi_d2iz                             0x0005bbfc   ARM Code       0  dfix.o(x$fpl$dfix)
    _dfix                                    0x0005bbfc   ARM Code     112  dfix.o(x$fpl$dfix)
    __aeabi_i2d                              0x0005bc6c   ARM Code       0  dflt_clz.o(x$fpl$dflt)
    _dflt                                    0x0005bc6c   ARM Code      52  dflt_clz.o(x$fpl$dflt)
    __aeabi_ui2d                             0x0005bca0   ARM Code       0  dflt_clz.o(x$fpl$dfltu)
    _dfltu                                   0x0005bca0   ARM Code      44  dflt_clz.o(x$fpl$dfltu)
    __aeabi_cdcmple                          0x0005bccc   ARM Code       0  dleqf.o(x$fpl$dleqf)
    _dcmple                                  0x0005bccc   ARM Code     148  dleqf.o(x$fpl$dleqf)
    __fpl_dcmple_InfNaN                      0x0005bd48   ARM Code       0  dleqf.o(x$fpl$dleqf)
    __aeabi_dmul                             0x0005bd60   ARM Code       0  dmul.o(x$fpl$dmul)
    _dmul                                    0x0005bd60   ARM Code     364  dmul.o(x$fpl$dmul)
    __fpl_dnaninf                            0x0005bed8   ARM Code     184  dnaninf.o(x$fpl$dnaninf)
    __fpl_dretinf                            0x0005bf90   ARM Code      16  dretinf.o(x$fpl$dretinf)
    __aeabi_cdrcmple                         0x0005bfa0   ARM Code       0  drleqf.o(x$fpl$drleqf)
    _drcmple                                 0x0005bfa0   ARM Code     140  drleqf.o(x$fpl$drleqf)
    __aeabi_drsub                            0x0005c02c   ARM Code       0  daddsub_clz.o(x$fpl$drsb)
    _drsb                                    0x0005c02c   ARM Code      24  daddsub_clz.o(x$fpl$drsb)
    __aeabi_dsub                             0x0005c044   ARM Code       0  daddsub_clz.o(x$fpl$dsub)
    _dsub                                    0x0005c044   ARM Code     508  daddsub_clz.o(x$fpl$dsub)
    __aeabi_f2d                              0x0005c244   ARM Code       0  f2d.o(x$fpl$f2d)
    _f2d                                     0x0005c244   ARM Code     100  f2d.o(x$fpl$f2d)
    __aeabi_f2uiz                            0x0005c2a8   ARM Code       0  ffixu.o(x$fpl$ffixu)
    _ffixu                                   0x0005c2a8   ARM Code      84  ffixu.o(x$fpl$ffixu)
    __aeabi_ui2f                             0x0005c2fc   ARM Code       0  fflt_clz.o(x$fpl$ffltu)
    _ffltu                                   0x0005c2fc   ARM Code      40  fflt_clz.o(x$fpl$ffltu)
    __aeabi_fmul                             0x0005c324   ARM Code       0  fmul.o(x$fpl$fmul)
    _fmul                                    0x0005c324   ARM Code     256  fmul.o(x$fpl$fmul)
    __fpl_fnaninf                            0x0005c424   ARM Code     160  fnaninf.o(x$fpl$fnaninf)
    __fpl_fretinf                            0x0005c4c4   ARM Code      16  fretinf.o(x$fpl$fretinf)
    __ieee_status                            0x0005c4d4   ARM Code       8  istatus.o(x$fpl$ieeestatus)
    _printf_fp_dec                           0x0005c4dc   ARM Code       4  printf1.o(x$fpl$printf1)
    __fpl_return_NaN                         0x0005c4e0   ARM Code     116  retnan.o(x$fpl$retnan)
    __ARM_scalbn                             0x0005c554   ARM Code     104  scalbn.o(x$fpl$scalbn)
    _scanf_real                              0x0005c5bc   ARM Code       4  scanf1.o(x$fpl$scanf1)
    _scanf_hex_real                          0x0005c5c0   ARM Code       4  scanf2.o(x$fpl$scanf2)
    _scanf_infnan                            0x0005c5c4   ARM Code       4  scanf2.o(x$fpl$scanf2)
    __fpl_cmpreturn                          0x0005c5c8   ARM Code      60  trapv.o(x$fpl$trapveneer)
    __I$use$fp                               0x0005c604   Number         0  usenofp.o(x$fpl$usenofp)
    nand_flash_ids                           0x0005e2b8   Data        1728  nand_ids.o(.constdata)
    nand_manuf_ids                           0x0005e978   Data          80  nand_ids.o(.constdata)
    _monlen                                  0x0005f5c5   Data          12  _monlen.o(.constdata)
    Region$$Table$$Base                      0x0005ff78   Number         0  anon$$obj.o(Region$$Table)
    Region$$Table$$Limit                     0x0005ffa8   Number         0  anon$$obj.o(Region$$Table)
    __aeabi_HUGE_VAL                         0x0005ffa8   Data           0  fpconst.o(c$$dinf)
    __aeabi_HUGE_VALL                        0x0005ffa8   Data           0  fpconst.o(c$$dinf)
    __aeabi_INFINITY                         0x0005ffa8   Data           0  fpconst.o(c$$dinf)
    __dInf                                   0x0005ffa8   Data           0  fpconst.o(c$$dinf)
    __huge_val                               0x0005ffa8   Data           0  fpconst.o(c$$dinf)
    __ctype                                  0x0005ffbd   Data           0  lc_ctype_c.o(locale$$data)
    sysRunDebug                              0x000600dd   Data           1  main.o(.data)
    _sys_bIsAICInitial                       0x000600f8   Data           1  sys.o(.data)
    sysIrqHandlerTable                       0x000600fc   Data         248  sys.o(.data)
    sysFiqHandlerTable                       0x000601f4   Data         248  sys.o(.data)
    _sys_uTimer0ClockRate                    0x000602ec   Data           4  sys_timer.o(.data)
    _sys_uTimer1ClockRate                    0x000602f0   Data           4  sys_timer.o(.data)
    _sys_uTimer0Count                        0x000602f4   Data           4  sys_timer.o(.data)
    _sys_uTimer1Count                        0x000602f8   Data           4  sys_timer.o(.data)
    _sys_uTime0EventCount                    0x000602fc   Data           4  sys_timer.o(.data)
    _sys_uTime1EventCount                    0x00060300   Data           4  sys_timer.o(.data)
    _sys_bIsSetTime0Event                    0x00060304   Data           1  sys_timer.o(.data)
    _sys_bIsSetTime1Event                    0x00060305   Data           1  sys_timer.o(.data)
    _sys_bIsTimer0Initial                    0x00060306   Data           1  sys_timer.o(.data)
    _sys_ReferenceTime_Clock                 0x00060308   Data           4  sys_timer.o(.data)
    _sys_pvOldTimer0Vect                     0x0006033c   Data           4  sys_timer.o(.data)
    _sys_pvOldTimer1Vect                     0x00060340   Data           4  sys_timer.o(.data)
    _sys_uTimer0TickPerSecond                0x00060344   Data           4  sys_timer.o(.data)
    _sys_ReferenceTime_UTC                   0x00060348   Data           4  sys_timer.o(.data)
    _sys_IsCacheOn                           0x0006034c   Data           1  system_nuc970.o(.data)
    _sys_CacheMode                           0x00060354   Data           4  system_nuc970.o(.data)
    i                                        0x00060458   Data           4  rtc.o(.data)
    Wait                                     0x0006045c   Data           4  rtc.o(.data)
    _sd_uR3_CMD                              0x0006046c   Data           4  sdh.o(.data)
    _sd_uR7_CMD                              0x00060470   Data           4  sdh.o(.data)
    _sd_SDDataReady                          0x00060474   Data           1  sdh.o(.data)
    sd0_ok                                   0x00060478   Data           4  sdh.o(.data)
    sd1_ok                                   0x0006047c   Data           4  sdh.o(.data)
    pSD0_offset                              0x00060480   Data           1  sdh.o(.data)
    pSD1_offset                              0x00060481   Data           1  sdh.o(.data)
    _sd_pSDHCBuffer                          0x00060484   Data           4  sdh.o(.data)
    gSDHReferenceClock                       0x00060488   Data           4  sdh.o(.data)
    mst_complete                             0x0006048c   Data           4  adc.o(.data)
    g_bAlarm                                 0x000607f4   Data           1  powerdrv.o(.data)
    enableReceiveDebug                       0x00060ce0   Data           4  atcmdparser.o(.data)
    mtd_partitions                           0x00061358   Data           8  mtdpart.o(.data)
    nand_curr_device                         0x00061360   Data           4  nand.o(.data)
    yaffs_trace_mask                         0x00061380   Data           4  yaffs_malloc.o(.data)
    _YAFFS_pCurrent                          0x00061384   Data           4  yaffs_malloc.o(.data)
    _AllocatedMemorySize                     0x00061390   Data           4  yaffs_malloc.o(.data)
    hard_list                                0x000613ac   Data           8  yaffs_yaffs2.o(.data)
    yaffsfs_deviceList                       0x000613b4   Data           8  yaffsfs.o(.data)
    yaffs_wr_attempts                        0x000613bc   Data           4  yaffsfs.o(.data)
    nuc970_nand                              0x000613d0   Data           4  fmi_nand.o(.data)
    pxCurrentTCB                             0x000613d4   Data           4  tasks.o(.data)
    ulCriticalNesting                        0x00061428   Data           4  port.o(.data)
    tTime0Event                              0x0006142c   Data         160  sys_timer.o(.bss)
    tTime1Event                              0x000614cc   Data         160  sys_timer.o(.bss)
    _mmuSectionTable                         0x00064000   Data       16384  system_nuc970.o(.bss)
    _sd_ucSDHCBuffer                         0x00089000   Data         512  sdh.o(.bss)
    SD0                                      0x00089200   Data          24  sdh.o(.bss)
    SD1                                      0x00089218   Data          24  sdh.o(.bss)
    _FatfsVolSFlash                          0x0009f6f8   Data        4152  flashdrvex.o(.bss)
    serialFlashBuff                          0x000a0730   Data       20480  flashdrvex.o(.bss)
    readBuff                                 0x002aa767   Data        4096  quentelmodemlib.o(.bss)
    mtd_table                                0x002ab768   Data         128  mtdcore.o(.bss)
    nand_info                                0x002ab7e8   Data         176  nand.o(.bss)
    _YAFFSMemoryPool                         0x002ac400   Data       4194304  yaffs_malloc.o(.bss)
    g_nuc970_nand                            0x006afa30   Data         488  fmi_nand.o(.bss)
    Image$$RW_RAM1$$ZI$$Limit                0x016b0020   Number         0  rt_locale.o(.bss)



==============================================================================

Memory Map of the image

  Image Entry point : 0x00000000

  Load Region LR_IROM1 (Base: 0x00000000, Size: 0x0006142c, Max: 0x04000000, ABSOLUTE, COMPRESSED[0x00060790])

    Execution Region ER_IROM1 (Base: 0x00000000, Size: 0x000600dc, Max: 0x04000000, ABSOLUTE)

    Base Addr    Size         Type   Attr      Idx    E Section Name        Object

    0x00000000   0x000000ac   Code   RO          285  * NUC_INIT            startup_nuc970.o
    0x000000ac   0x00000008   Code   RO         3307  * !!!main             c_5.l(__main.o)
    0x000000b4   0x0000003c   Code   RO         3721    !!!scatter          c_5.l(__scatter.o)
    0x000000f0   0x0000005c   Code   RO         3719    !!dczerorl2         c_5.l(__dczerorl2.o)
    0x0000014c   0x00000028   Code   RO         3723    !!handler_copy      c_5.l(__scatter_copy.o)
    0x00000174   0x0000002c   Code   RO         3725    !!handler_zi        c_5.l(__scatter_zi.o)
    0x000001a0   0x00000000   Code   RO         3250    .ARM.Collect$$_printf_percent$$00000000  c_5.l(_printf_percent.o)
    0x000001a0   0x00000008   Code   RO         3248    .ARM.Collect$$_printf_percent$$00000003  c_5.l(_printf_f.o)
    0x000001a8   0x00000008   Code   RO         3249    .ARM.Collect$$_printf_percent$$00000004  c_5.l(_printf_e.o)
    0x000001b0   0x00000008   Code   RO         3246    .ARM.Collect$$_printf_percent$$00000009  c_5.l(_printf_d.o)
    0x000001b8   0x00000008   Code   RO         3247    .ARM.Collect$$_printf_percent$$0000000A  c_5.l(_printf_u.o)
    0x000001c0   0x00000008   Code   RO         3245    .ARM.Collect$$_printf_percent$$0000000C  c_5.l(_printf_x.o)
    0x000001c8   0x00000008   Code   RO         3243    .ARM.Collect$$_printf_percent$$00000013  c_5.l(_printf_c.o)
    0x000001d0   0x00000008   Code   RO         3244    .ARM.Collect$$_printf_percent$$00000014  c_5.l(_printf_s.o)
    0x000001d8   0x00000008   Code   RO         3418    .ARM.Collect$$_printf_percent$$00000017  c_5.l(_printf_percent_end.o)
    0x000001e0   0x00000002   Code   RO         3604    .ARM.Collect$$libinit$$00000000  c_5.l(libinit.o)
    0x000001e2   0x00000000   Code   RO         3527    .ARM.Collect$$libinit$$00000002  c_5.l(libinit2.o)
    0x000001e2   0x00000000   Code   RO         3530    .ARM.Collect$$libinit$$00000008  c_5.l(libinit2.o)
    0x000001e2   0x00000000   Code   RO         3532    .ARM.Collect$$libinit$$0000000A  c_5.l(libinit2.o)
    0x000001e2   0x00000000   Code   RO         3534    .ARM.Collect$$libinit$$0000000C  c_5.l(libinit2.o)
    0x000001e2   0x00000006   Code   RO         3535    .ARM.Collect$$libinit$$0000000D  c_5.l(libinit2.o)
    0x000001e8   0x00000000   Code   RO         3537    .ARM.Collect$$libinit$$0000000F  c_5.l(libinit2.o)
    0x000001e8   0x0000000c   Code   RO         3538    .ARM.Collect$$libinit$$00000010  c_5.l(libinit2.o)
    0x000001f4   0x00000000   Code   RO         3539    .ARM.Collect$$libinit$$00000011  c_5.l(libinit2.o)
    0x000001f4   0x00000000   Code   RO         3541    .ARM.Collect$$libinit$$00000013  c_5.l(libinit2.o)
    0x000001f4   0x0000000a   Code   RO         3542    .ARM.Collect$$libinit$$00000014  c_5.l(libinit2.o)
    0x000001fe   0x00000000   Code   RO         3543    .ARM.Collect$$libinit$$00000015  c_5.l(libinit2.o)
    0x000001fe   0x00000000   Code   RO         3545    .ARM.Collect$$libinit$$00000017  c_5.l(libinit2.o)
    0x000001fe   0x00000000   Code   RO         3547    .ARM.Collect$$libinit$$00000019  c_5.l(libinit2.o)
    0x000001fe   0x00000000   Code   RO         3549    .ARM.Collect$$libinit$$0000001B  c_5.l(libinit2.o)
    0x000001fe   0x00000000   Code   RO         3551    .ARM.Collect$$libinit$$0000001D  c_5.l(libinit2.o)
    0x000001fe   0x00000000   Code   RO         3553    .ARM.Collect$$libinit$$0000001F  c_5.l(libinit2.o)
    0x000001fe   0x00000000   Code   RO         3555    .ARM.Collect$$libinit$$00000021  c_5.l(libinit2.o)
    0x000001fe   0x00000000   Code   RO         3557    .ARM.Collect$$libinit$$00000023  c_5.l(libinit2.o)
    0x000001fe   0x00000000   Code   RO         3561    .ARM.Collect$$libinit$$0000002A  c_5.l(libinit2.o)
    0x000001fe   0x00000000   Code   RO         3563    .ARM.Collect$$libinit$$0000002C  c_5.l(libinit2.o)
    0x000001fe   0x00000000   Code   RO         3565    .ARM.Collect$$libinit$$0000002E  c_5.l(libinit2.o)
    0x000001fe   0x00000000   Code   RO         3567    .ARM.Collect$$libinit$$00000030  c_5.l(libinit2.o)
    0x000001fe   0x00000002   Code   RO         3568    .ARM.Collect$$libinit$$00000031  c_5.l(libinit2.o)
    0x00000200   0x00000002   Code   RO         3693    .ARM.Collect$$libshutdown$$00000000  c_5.l(libshutdown.o)
    0x00000202   0x00000000   Code   RO         3630    .ARM.Collect$$libshutdown$$00000003  c_5.l(libshutdown2.o)
    0x00000202   0x00000000   Code   RO         3633    .ARM.Collect$$libshutdown$$00000006  c_5.l(libshutdown2.o)
    0x00000202   0x00000000   Code   RO         3636    .ARM.Collect$$libshutdown$$00000009  c_5.l(libshutdown2.o)
    0x00000202   0x00000000   Code   RO         3638    .ARM.Collect$$libshutdown$$0000000B  c_5.l(libshutdown2.o)
    0x00000202   0x00000000   Code   RO         3641    .ARM.Collect$$libshutdown$$0000000E  c_5.l(libshutdown2.o)
    0x00000202   0x00000002   Code   RO         3642    .ARM.Collect$$libshutdown$$0000000F  c_5.l(libshutdown2.o)
    0x00000204   0x00000000   Code   RO         3365    .ARM.Collect$$rtentry$$00000000  c_5.l(rtentry.o)
    0x00000204   0x00000000   Code   RO         3441    .ARM.Collect$$rtentry$$00000002  c_5.l(rtentry2.o)
    0x00000204   0x00000008   Code   RO         3453    .ARM.Collect$$rtentry$$00000004  c_5.l(rtentry4.o)
    0x0000020c   0x00000000   Code   RO         3443    .ARM.Collect$$rtentry$$00000009  c_5.l(rtentry2.o)
    0x0000020c   0x00000004   Code   RO         3444    .ARM.Collect$$rtentry$$0000000A  c_5.l(rtentry2.o)
    0x00000210   0x00000000   Code   RO         3446    .ARM.Collect$$rtentry$$0000000C  c_5.l(rtentry2.o)
    0x00000210   0x00000028   Code   RO         3447    .ARM.Collect$$rtentry$$0000000D  c_5.l(rtentry2.o)
    0x00000238   0x00000004   Code   RO         3610    .ARM.Collect$$rtexit$$00000000  c_5.l(rtexit.o)
    0x0000023c   0x00000000   Code   RO         3659    .ARM.Collect$$rtexit$$00000002  c_5.l(rtexit2.o)
    0x0000023c   0x00000004   Code   RO         3660    .ARM.Collect$$rtexit$$00000003  c_5.l(rtexit2.o)
    0x00000240   0x00000008   Code   RO         3661    .ARM.Collect$$rtexit$$00000004  c_5.l(rtexit2.o)
    0x00000248   0x00000008   Code   RO         2959    .emb_text           freertos.lib(osmisc.o)
    0x00000250   0x00000f88   Code   RO            1    .text               main.o
    0x000011d8   0x00000934   Code   RO          213    .text               sys.o
    0x00001b0c   0x00000d6c   Code   RO          228    .text               sys_timer.o
    0x00002878   0x00000594   Code   RO          254    .text               sys_uart.o
    0x00002e0c   0x00000930   Code   RO          269    .text               system_nuc970.o
    0x0000373c   0x00002714   Code   RO          292    .text               uart.o
    0x00005e50   0x00000040   Code   RO          322    .text               standalone.o
    0x00005e90   0x00000bcc   Code   RO          333    .text               gpio.o
    0x00006a5c   0x000019e8   Code   RO          351    .text               rtc.o
    0x00008444   0x00000660   Code   RO          369    .text               spi.o
    0x00008aa4   0x00000c18   Code   RO          386    .text               i2c.o
    0x000096bc   0x00001b9c   Code   RO          407    .text               sdh.o
    0x0000b258   0x00000fe8   Code   RO          444    .text               adc.o
    0x0000c240   0x000005c8   Code   RO          460    .text               etimer.o
    0x0000c808   0x000007d4   Code   RO          532    .text               guistandby.o
    0x0000cfdc   0x000003dc   Code   RO          553    .text               guimanager.o
    0x0000d3b8   0x00001284   Code   RO          603    .text               meterdata.o
    0x0000e63c   0x000005a4   Code   RO          665    .text               guiselspace.o
    0x0000ebe0   0x00000554   Code   RO          680    .text               guiseltime.o
    0x0000f134   0x00000390   Code   RO          695    .text               guireaderinit.o
    0x0000f4c4   0x000005c0   Code   RO          710    .text               guideposit.o
    0x0000fa84   0x00000310   Code   RO          725    .text               guidepositfail.o
    0x0000fd94   0x00000310   Code   RO          740    .text               guidepositok.o
    0x000100a4   0x00000520   Code   RO          755    .text               guireplacebp.o
    0x000105c4   0x000003e0   Code   RO          770    .text               guitester.o
    0x000109a4   0x000003ec   Code   RO          785    .text               guitesterkeypad.o
    0x00010d90   0x00000dd4   Code   RO          800    .text               paralib.o
    0x00011b64   0x00000300   Code   RO          825    .text               guifiledownload.o
    0x00011e64   0x000002b0   Code   RO          846    .text               guifree.o
    0x00012114   0x000002b0   Code   RO          861    .text               guioff.o
    0x000123c4   0x0000004c   Code   RO          876    .text               halinterface.o
    0x00012410   0x0000046c   Code   RO          908    .text               guidrv.o
    0x0001287c   0x00000208   Code   RO          929    .text               keydrv.o
    0x00012a84   0x00000aec   Code   RO          943    .text               powerdrv.o
    0x00013570   0x00000268   Code   RO          973    .text               timerdrv.o
    0x000137d8   0x000003e8   Code   RO          988    .text               cardreader.o
    0x00013bc0   0x00003c8c   Code   RO         1005    .text               epddrv.o
    0x0001784c   0x00000750   Code   RO         1031    .text               spacedrv.o
    0x00017f9c   0x00000568   Code   RO         1049    .text               timelib.o
    0x00018504   0x00001a20   Code   RO         1065    .text               ts2000drv.o
    0x00019f24   0x00000724   Code   RO         1117    .text               fatfslib.o
    0x0001a648   0x00000218   Code   RO         1140    .text               photoagent.o
    0x0001a860   0x00000764   Code   RO         1167    .text               jsoncmdlib.o
    0x0001afc4   0x00000630   Code   RO         1203    .text               modemagent.o
    0x0001b5f4   0x00001894   Code   RO         1267    .text               tarifflib.o
    0x0001ce88   0x00000b84   Code   RO         1286    .text               yaffs2drv.o
    0x0001da0c   0x00002110   Code   RO         1392    .text               dataprocesslib.o
    0x0001fb1c   0x00000370   Code   RO         1414    .text               loglib.o
    0x0001fe8c   0x000004d4   Code   RO         1429    .text               ledcmdlib.o
    0x00020360   0x00000b94   Code   RO         1444    .text               leddrv.o
    0x00020ef4   0x00002814   Code   RO         1461    .text               fileagent.o
    0x00023708   0x00000130   Code   RO         1503    .text               userdrv.o
    0x00023838   0x0000010c   Code   RO         1545    .text               interface.o
    0x00023944   0x000003bc   Code   RO         1610    .text               uart1drv.o
    0x00023d00   0x0000032c   Code   RO         1627    .text               uart2drv.o
    0x0002402c   0x00000338   Code   RO         1641    .text               uart3drv.o
    0x00024364   0x00000364   Code   RO         1658    .text               uart4drv.o
    0x000246c8   0x0000033c   Code   RO         1675    .text               uart7drv.o
    0x00024a04   0x000002d0   Code   RO         1692    .text               uart8drv.o
    0x00024cd4   0x000003c0   Code   RO         1706    .text               uart10drv.o
    0x00025094   0x00000240   Code   RO         1720    .text               spi0drv.o
    0x000252d4   0x0000021c   Code   RO         1732    .text               spi1drv.o
    0x000254f0   0x00000158   Code   RO         1744    .text               i2c1drv.o
    0x00025648   0x00000324   Code   RO         1756    .text               buzzerdrv.o
    0x0002596c   0x000007b4   Code   RO         1773    .text               batterydrv.o
    0x00026120   0x0000078c   Code   RO         1791    .text               dipdrv.o
    0x000268ac   0x000001e0   Code   RO         1805    .text               rs232commdrv.o
    0x00026a8c   0x00000d14   Code   RO         1819    .text               flashdrvex.o
    0x000277a0   0x000003a4   Code   RO         1839    .text               sddrv.o
    0x00027b44   0x00000bd4   Code   RO         1856    .text               sr04tdrv.o
    0x00028718   0x00000b40   Code   RO         1873    .text               nt066edrv.o
    0x00029258   0x000000f8   Code   RO         1896    .text               ccsbcs.o
    0x00029350   0x000002fc   Code   RO         1916    .text               diskio.o
    0x0002964c   0x0000568c   Code   RO         1933    .text               ff.o
    0x0002ecd8   0x000031cc   Code   RO         1958    .text               cjson.o
    0x00031ea4   0x000006cc   Code   RO         2011    .text               atcmdparser.o
    0x00032570   0x00001950   Code   RO         2031    .text               quentelmodemlib.o
    0x00033ec0   0x000002cc   Code   RO         2070    .text               mtdcore.o
    0x0003418c   0x000010e0   Code   RO         2115    .text               mtdpart.o
    0x0003526c   0x00000198   Code   RO         2165    .text               nand.o
    0x00035404   0x00004fe4   Code   RO         2197    .text               nand_base.o
    0x0003a3e8   0x00002830   Code   RO         2271    .text               nand_bbt.o
    0x0003cc18   0x000007e0   Code   RO         2361    .text               yaffs_allocator.o
    0x0003d3f8   0x00000290   Code   RO         2411    .text               yaffs_attribs.o
    0x0003d688   0x0000039c   Code   RO         2432    .text               yaffs_bitmap.o
    0x0003da24   0x00000d24   Code   RO         2450    .text               yaffs_checkptrw.o
    0x0003e748   0x000004e0   Code   RO         2469    .text               yaffs_ecc.o
    0x0003ec28   0x00007d08   Code   RO         2501    .text               yaffs_guts.o
    0x00046930   0x000005c4   Code   RO         2557    .text               yaffs_malloc.o
    0x00046ef4   0x00000424   Code   RO         2574    .text               yaffs_mtdif.o
    0x00047318   0x000006f8   Code   RO         2661    .text               yaffs_mtdif2.o
    0x00047a10   0x00000558   Code   RO         2729    .text               yaffs_nameval.o
    0x00047f68   0x00000428   Code   RO         2741    .text               yaffs_nand.o
    0x00048390   0x0000042c   Code   RO         2773    .text               yaffs_packedtags2.o
    0x000487bc   0x00000630   Code   RO         2786    .text               yaffs_qsort.o
    0x00048dec   0x000007e8   Code   RO         2798    .text               yaffs_summary.o
    0x000495d4   0x00000d6c   Code   RO         2819    .text               yaffs_tagscompat.o
    0x0004a340   0x000014cc   Code   RO         2836    .text               yaffs_verify.o
    0x0004b80c   0x00000ab8   Code   RO         2852    .text               yaffs_yaffs1.o
    0x0004c2c4   0x00002c4c   Code   RO         2877    .text               yaffs_yaffs2.o
    0x0004ef10   0x00004ec8   Code   RO         2905    .text               yaffsfs.o
    0x00053dd8   0x000011e4   Code   RO         2925    .text               fmi_nand.o
    0x00054fbc   0x000004c8   Code   RO         2960    .text               freertos.lib(osmisc.o)
    0x00055484   0x00000afc   Code   RO         3025    .text               freertos.lib(queue.o)
    0x00055f80   0x00001e18   Code   RO         3049    .text               freertos.lib(tasks.o)
    0x00057d98   0x00000378   Code   RO         3075    .text               freertos.lib(heap_4.o)
    0x00058110   0x00000114   Code   RO         3093    .text               freertos.lib(list.o)
    0x00058224   0x0000017c   Code   RO         3105    .text               freertos.lib(port.o)
    0x000583a0   0x0000004c   Code   RO         3124    .text               c_5.l(h1_free.o)
    0x000583ec   0x000002f0   Code   RO         3178    .text               c_5.l(lludiv5.o)
    0x000586dc   0x00000028   Code   RO         3180    .text               c_5.l(llshl.o)
    0x00058704   0x00000028   Code   RO         3182    .text               c_5.l(llushr.o)
    0x0005872c   0x00000028   Code   RO         3184    .text               c_5.l(llsshr.o)
    0x00058754   0x00000050   Code   RO         3186    .text               c_5.l(llsdiv.o)
    0x000587a4   0x0000001a   Code   RO         3188    .text               c_5.l(tolower.o)
    0x000587be   0x00000002   PAD
    0x000587c0   0x0000002c   Code   RO         3190    .text               c_5.l(__2sprintf.o)
    0x000587ec   0x0000004e   Code   RO         3196    .text               c_5.l(_printf_pad.o)
    0x0005883a   0x00000052   Code   RO         3198    .text               c_5.l(_printf_str.o)
    0x0005888c   0x00000008   Ven    RO         3200    .text               c_5.l(_printf_dec.o)
    0x00058894   0x0000006c   Code   RO         3200    .text               c_5.l(_printf_dec.o)
    0x00058900   0x00000008   Ven    RO         3205    .text               c_5.l(_printf_hex_int.o)
    0x00058908   0x00000058   Code   RO         3205    .text               c_5.l(_printf_hex_int.o)
    0x00058960   0x00000188   Code   RO         3240    .text               c_5.l(__printf_flags_ss_wp.o)
    0x00058ae8   0x00000288   Code   RO         3255    .text               c_5.l(qsortnoex.o)
    0x00058d70   0x00000016   Code   RO         3257    .text               c_5.l(strchr.o)
    0x00058d86   0x00000074   Code   RO         3259    .text               c_5.l(memcmp.o)
    0x00058dfa   0x00000002   PAD
    0x00058dfc   0x0000004c   Code   RO         3261    .text               c_5.l(strcpy.o)
    0x00058e48   0x00000044   Code   RO         3265    .text               c_5.l(strlen.o)
    0x00058e8c   0x00000094   Code   RO         3267    .text               c_5.l(strncmp.o)
    0x00058f20   0x00000018   Code   RO         3269    .text               c_5.l(strcat.o)
    0x00058f38   0x000000d4   Code   RO         3271    .text               c_5.l(rt_memcpy.o)
    0x0005900c   0x00000064   Code   RO         3273    .text               c_5.l(rt_memcpy_w.o)
    0x00059070   0x00000010   Code   RO         3275    .text               c_5.l(aeabi_memset.o)
    0x00059080   0x00000040   Code   RO         3277    .text               c_5.l(rt_memclr.o)
    0x000590c0   0x00000054   Code   RO         3279    .text               c_5.l(rt_memclr_w.o)
    0x00059114   0x0000006c   Code   RO         3281    .text               c_5.l(strncpy.o)
    0x00059180   0x000000a0   Code   RO         3283    .text               c_5.l(strcmp.o)
    0x00059220   0x00000020   Code   RO         3285    .text               c_5.l(uread4.o)
    0x00059240   0x00000020   Code   RO         3287    .text               c_5.l(uwrite4.o)
    0x00059260   0x000001b0   Code   RO         3289    .text               c_5.l(mktime.o)
    0x00059410   0x0000017c   Code   RO         3291    .text               c_5.l(aeabi_sdiv.o)
    0x0005958c   0x00000014   Code   RO         3366    .text               c_5.l(rt_ctype_table.o)
    0x000595a0   0x0000000c   Code   RO         3376    .text               c_5.l(rt_heap_descriptor.o)
    0x000595ac   0x0000000c   Code   RO         3381    .text               c_5.l(rt_errno_addr.o)
    0x000595b8   0x000000b0   Code   RO         3408    .text               c_5.l(_printf_intcommon.o)
    0x00059668   0x00000414   Code   RO         3410    .text               c_5.l(_printf_fp_dec.o)
    0x00059a7c   0x00000030   Code   RO         3412    .text               c_5.l(_printf_char_common.o)
    0x00059aac   0x0000000a   Code   RO         3414    .text               c_5.l(_sputc.o)
    0x00059ab6   0x00000002   PAD
    0x00059ab8   0x00000008   Ven    RO         3416    .text               c_5.l(_printf_char.o)
    0x00059ac0   0x0000002e   Code   RO         3416    .text               c_5.l(_printf_char.o)
    0x00059aee   0x00000002   PAD
    0x00059af0   0x000000a8   Code   RO         3419    .text               c_5.l(strtod.o)
    0x00059b98   0x0000002c   Code   RO         3424    .text               c_5.l(rtudiv10.o)
    0x00059bc4   0x0000000c   Code   RO         3457    .text               c_5.l(rt_locale.o)
    0x00059bd0   0x00000098   Code   RO         3472    .text               c_5.l(lludiv10.o)
    0x00059c68   0x00000012   Code   RO         3474    .text               c_5.l(isspace.o)
    0x00059c7a   0x00000002   PAD
    0x00059c7c   0x00000088   Code   RO         3476    .text               c_5.l(_printf_fp_infnan.o)
    0x00059d04   0x00000044   Code   RO         3480    .text               c_5.l(_sgetc.o)
    0x00059d48   0x000000d4   Code   RO         3484    .text               c_5.l(bigflt0.o)
    0x00059e1c   0x0000001e   Code   RO         3583    .text               c_5.l(_chval.o)
    0x00059e3a   0x00000002   PAD
    0x00059e3c   0x000004d8   Code   RO         3585    .text               c_5.l(scanf_fp.o)
    0x0005a314   0x0000000c   Code   RO         3587    .text               c_5.l(exit.o)
    0x0005a320   0x00000018   Code   RO         3616    .text               c_5.l(llmul.o)
    0x0005a338   0x00000008   Ven    RO         3665    .text               c_5.l(_rserrno.o)
    0x0005a340   0x00000016   Code   RO         3665    .text               c_5.l(_rserrno.o)
    0x0005a356   0x00000002   PAD
    0x0005a358   0x00000008   Ven    RO         3667    .text               c_5.l(scanf_hexfp.o)
    0x0005a360   0x00000328   Code   RO         3667    .text               c_5.l(scanf_hexfp.o)
    0x0005a688   0x00000008   Ven    RO         3669    .text               c_5.l(scanf_infnan.o)
    0x0005a690   0x00000140   Code   RO         3669    .text               c_5.l(scanf_infnan.o)
    0x0005a7d0   0x00000024   Code   RO         3292    .text_udiv          c_5.l(aeabi_sdiv.o)
    0x0005a7f4   0x00000038   Code   RO         3487    CL$$btod_d2e        c_5.l(btod.o)
    0x0005a82c   0x00000054   Code   RO         3489    CL$$btod_d2e_denorm_low  c_5.l(btod.o)
    0x0005a880   0x00000068   Code   RO         3488    CL$$btod_d2e_norm_op1  c_5.l(btod.o)
    0x0005a8e8   0x00000348   Code   RO         3497    CL$$btod_div_common  c_5.l(btod.o)
    0x0005ac30   0x0000005c   Code   RO         3495    CL$$btod_e2d        c_5.l(btod.o)
    0x0005ac8c   0x000000dc   Code   RO         3494    CL$$btod_e2e        c_5.l(btod.o)
    0x0005ad68   0x00000030   Code   RO         3491    CL$$btod_ediv       c_5.l(btod.o)
    0x0005ad98   0x00000030   Code   RO         3493    CL$$btod_edivd      c_5.l(btod.o)
    0x0005adc8   0x00000030   Code   RO         3490    CL$$btod_emul       c_5.l(btod.o)
    0x0005adf8   0x00000030   Code   RO         3492    CL$$btod_emuld      c_5.l(btod.o)
    0x0005ae28   0x00000264   Code   RO         3496    CL$$btod_mult_common  c_5.l(btod.o)
    0x0005b08c   0x00000150   Code   RO         3090    PORT_ASM            freertos.lib(portasm.o)
    0x0005b1dc   0x00000030   Code   RO          289    SYS_INIT            sys_nuc970.o
    0x0005b20c   0x00000008   Ven    RO         3733    Veneer$$Code        anon$$obj.o
    0x0005b214   0x00000008   Ven    RO         3734    Veneer$$Code        anon$$obj.o
    0x0005b21c   0x00000008   Ven    RO         3735    Veneer$$Code        anon$$obj.o
    0x0005b224   0x00000030   Code   RO         3573    i.__ARM_fpclassify  m_5s.l(fpclassify.o)
    0x0005b254   0x00000014   Code   RO         3710    i.__mathlib_dbl_underflow  m_5s.l(dunder.o)
    0x0005b268   0x00000018   Code   RO         3652    i.__mathlib_narrow  m_5s.l(narrow.o)
    0x0005b280   0x000000d0   Code   RO         3653    i.__mathlib_tofloat  m_5s.l(narrow.o)
    0x0005b350   0x00000020   Code   RO         3697    i.__support_ldexp   m_5s.l(ldexp.o)
    0x0005b370   0x0000000e   Code   RO         3233    i._is_digit         c_5.l(__printf_wp.o)
    0x0005b37e   0x00000002   PAD
    0x0005b380   0x00000130   Code   RO         3356    i.floor             m_5s.l(floor.o)
    0x0005b4b0   0x00000074   Code   RO         3674    i.frexp             m_5s.l(frexp.o)
    0x0005b524   0x000000c8   Code   RO         3698    i.ldexp             m_5s.l(ldexp.o)
    0x0005b5ec   0x00000030   Code   RO         3360    i.strtod            m_5s.l(strtod.o)
    0x0005b61c   0x00000048   Code   RO         3510    locale$$code        c_5.l(lc_ctype_c.o)
    0x0005b664   0x00000048   Code   RO         3513    locale$$code        c_5.l(lc_numeric_c.o)
    0x0005b6ac   0x0000006c   Code   RO         3309    x$fpl$d2f           fz_5s.l(d2f.o)
    0x0005b718   0x00000154   Code   RO         3311    x$fpl$dadd          fz_5s.l(daddsub_clz.o)
    0x0005b86c   0x00000010   Code   RO         3708    x$fpl$dcheck1       fz_5s.l(dcheck1.o)
    0x0005b87c   0x0000001c   Code   RO         3426    x$fpl$dcmpinf       fz_5s.l(dcmpi.o)
    0x0005b898   0x000002d0   Code   RO         3318    x$fpl$ddiv          fz_5s.l(ddiv.o)
    0x0005bb68   0x00000094   Code   RO         3321    x$fpl$deqf          fz_5s.l(deqf.o)
    0x0005bbfc   0x00000070   Code   RO         3323    x$fpl$dfix          fz_5s.l(dfix.o)
    0x0005bc6c   0x00000034   Code   RO         3328    x$fpl$dflt          fz_5s.l(dflt_clz.o)
    0x0005bca0   0x0000002c   Code   RO         3327    x$fpl$dfltu         fz_5s.l(dflt_clz.o)
    0x0005bccc   0x00000094   Code   RO         3333    x$fpl$dleqf         fz_5s.l(dleqf.o)
    0x0005bd60   0x00000178   Code   RO         3335    x$fpl$dmul          fz_5s.l(dmul.o)
    0x0005bed8   0x000000b8   Code   RO         3428    x$fpl$dnaninf       fz_5s.l(dnaninf.o)
    0x0005bf90   0x00000010   Code   RO         3430    x$fpl$dretinf       fz_5s.l(dretinf.o)
    0x0005bfa0   0x0000008c   Code   RO         3337    x$fpl$drleqf        fz_5s.l(drleqf.o)
    0x0005c02c   0x00000018   Code   RO         3312    x$fpl$drsb          fz_5s.l(daddsub_clz.o)
    0x0005c044   0x00000200   Code   RO         3313    x$fpl$dsub          fz_5s.l(daddsub_clz.o)
    0x0005c244   0x00000064   Code   RO         3339    x$fpl$f2d           fz_5s.l(f2d.o)
    0x0005c2a8   0x00000054   Code   RO         3341    x$fpl$ffixu         fz_5s.l(ffixu.o)
    0x0005c2fc   0x00000028   Code   RO         3345    x$fpl$ffltu         fz_5s.l(fflt_clz.o)
    0x0005c324   0x00000100   Code   RO         3351    x$fpl$fmul          fz_5s.l(fmul.o)
    0x0005c424   0x000000a0   Code   RO         3432    x$fpl$fnaninf       fz_5s.l(fnaninf.o)
    0x0005c4c4   0x00000010   Code   RO         3434    x$fpl$fretinf       fz_5s.l(fretinf.o)
    0x0005c4d4   0x00000008   Code   RO         3569    x$fpl$ieeestatus    fz_5s.l(istatus.o)
    0x0005c4dc   0x00000004   Code   RO         3353    x$fpl$printf1       fz_5s.l(printf1.o)
    0x0005c4e0   0x00000074   Code   RO         3713    x$fpl$retnan        fz_5s.l(retnan.o)
    0x0005c554   0x00000068   Code   RO         3694    x$fpl$scalbn        fz_5s.l(scalbn.o)
    0x0005c5bc   0x00000004   Code   RO         3571    x$fpl$scanf1        fz_5s.l(scanf1.o)
    0x0005c5c0   0x00000008   Code   RO         3646    x$fpl$scanf2        fz_5s.l(scanf2.o)
    0x0005c5c8   0x0000003c   Code   RO         3715    x$fpl$trapveneer    fz_5s.l(trapv.o)
    0x0005c604   0x00000000   Code   RO         3436    x$fpl$usenofp       fz_5s.l(usenofp.o)
    0x0005c604   0x00000046   Data   RO            2    .constdata          main.o
    0x0005c64a   0x00000002   PAD
    0x0005c64c   0x00000098   Data   RO          409    .constdata          sdh.o
    0x0005c6e4   0x0000011d   Data   RO          533    .constdata          guistandby.o
    0x0005c801   0x00000003   PAD
    0x0005c804   0x00000182   Data   RO          605    .constdata          meterdata.o
    0x0005c986   0x00000002   PAD
    0x0005c988   0x0000016e   Data   RO          666    .constdata          guiselspace.o
    0x0005caf6   0x00000002   PAD
    0x0005caf8   0x0000005a   Data   RO          681    .constdata          guiseltime.o
    0x0005cb52   0x00000002   PAD
    0x0005cb54   0x0000005d   Data   RO          696    .constdata          guireaderinit.o
    0x0005cbb1   0x00000003   PAD
    0x0005cbb4   0x0000014a   Data   RO          711    .constdata          guideposit.o
    0x0005ccfe   0x00000002   PAD
    0x0005cd00   0x0000005e   Data   RO          726    .constdata          guidepositfail.o
    0x0005cd5e   0x00000002   PAD
    0x0005cd60   0x0000005c   Data   RO          741    .constdata          guidepositok.o
    0x0005cdbc   0x0000005c   Data   RO          756    .constdata          guireplacebp.o
    0x0005ce18   0x00000059   Data   RO          771    .constdata          guitester.o
    0x0005ce71   0x00000003   PAD
    0x0005ce74   0x0000005f   Data   RO          786    .constdata          guitesterkeypad.o
    0x0005ced3   0x00000001   PAD
    0x0005ced4   0x0000005b   Data   RO          802    .constdata          paralib.o
    0x0005cf2f   0x00000001   PAD
    0x0005cf30   0x0000005f   Data   RO          826    .constdata          guifiledownload.o
    0x0005cf8f   0x00000001   PAD
    0x0005cf90   0x00000057   Data   RO          847    .constdata          guifree.o
    0x0005cfe7   0x00000001   PAD
    0x0005cfe8   0x00000056   Data   RO          862    .constdata          guioff.o
    0x0005d03e   0x00000002   PAD
    0x0005d040   0x00000046   Data   RO          945    .constdata          powerdrv.o
    0x0005d086   0x00000002   PAD
    0x0005d088   0x00000087   Data   RO         1007    .constdata          epddrv.o
    0x0005d10f   0x00000001   PAD
    0x0005d110   0x000000c6   Data   RO         1051    .constdata          timelib.o
    0x0005d1d6   0x00000002   PAD
    0x0005d1d8   0x00000047   Data   RO         1067    .constdata          ts2000drv.o
    0x0005d21f   0x00000001   PAD
    0x0005d220   0x0000008c   Data   RO         1119    .constdata          fatfslib.o
    0x0005d2ac   0x00000090   Data   RO         1204    .constdata          modemagent.o
    0x0005d33c   0x000000ba   Data   RO         1269    .constdata          tarifflib.o
    0x0005d3f6   0x00000002   PAD
    0x0005d3f8   0x00000043   Data   RO         1287    .constdata          yaffs2drv.o
    0x0005d43b   0x00000001   PAD
    0x0005d43c   0x0000016f   Data   RO         1393    .constdata          dataprocesslib.o
    0x0005d5ab   0x00000001   PAD
    0x0005d5ac   0x000002e1   Data   RO         1463    .constdata          fileagent.o
    0x0005d88d   0x00000003   PAD
    0x0005d890   0x0000004f   Data   RO         1821    .constdata          flashdrvex.o
    0x0005d8df   0x00000001   PAD
    0x0005d8e0   0x000004c0   Data   RO         1897    .constdata          ccsbcs.o
    0x0005dda0   0x000000ba   Data   RO         1935    .constdata          ff.o
    0x0005de5a   0x00000005   Data   RO         1960    .constdata          cjson.o
    0x0005de5f   0x00000001   PAD
    0x0005de60   0x000001f1   Data   RO         2033    .constdata          quentelmodemlib.o
    0x0005e051   0x00000003   PAD
    0x0005e054   0x000000f2   Data   RO         2116    .constdata          mtdpart.o
    0x0005e146   0x00000002   PAD
    0x0005e148   0x0000010c   Data   RO         2199    .constdata          nand_base.o
    0x0005e254   0x00000061   Data   RO         2273    .constdata          nand_bbt.o
    0x0005e2b5   0x00000003   PAD
    0x0005e2b8   0x00000710   Data   RO         2310    .constdata          nand_ids.o
    0x0005e9c8   0x00000094   Data   RO         2451    .constdata          yaffs_checkptrw.o
    0x0005ea5c   0x00000100   Data   RO         2470    .constdata          yaffs_ecc.o
    0x0005eb5c   0x00000250   Data   RO         2502    .constdata          yaffs_guts.o
    0x0005edac   0x00000098   Data   RO         2559    .constdata          yaffs_malloc.o
    0x0005ee44   0x0000005b   Data   RO         2774    .constdata          yaffs_packedtags2.o
    0x0005ee9f   0x00000001   PAD
    0x0005eea0   0x0000014c   Data   RO         2837    .constdata          yaffs_verify.o
    0x0005efec   0x00000062   Data   RO         2853    .constdata          yaffs_yaffs1.o
    0x0005f04e   0x00000002   PAD
    0x0005f050   0x000002f1   Data   RO         2878    .constdata          yaffs_yaffs2.o
    0x0005f341   0x00000003   PAD
    0x0005f344   0x00000064   Data   RO         2927    .constdata          fmi_nand.o
    0x0005f3a8   0x000001e4   Data   RO         2961    .constdata          freertos.lib(osmisc.o)
    0x0005f58c   0x00000028   Data   RO         3206    .constdata          c_5.l(_printf_hex_int.o)
    0x0005f5b4   0x00000011   Data   RO         3241    .constdata          c_5.l(__printf_flags_ss_wp.o)
    0x0005f5c5   0x0000000c   Data   RO         3423    .constdata          c_5.l(_monlen.o)
    0x0005f5d1   0x00000003   PAD
    0x0005f5d4   0x00000094   Data   RO         3485    .constdata          c_5.l(bigflt0.o)
    0x0005f668   0x00000008   Data   RO            3    .conststring        main.o
    0x0005f670   0x00000066   Data   RO          606    .conststring        meterdata.o
    0x0005f6d6   0x0000000b   Data   RO          909    .conststring        guidrv.o
    0x0005f6e1   0x0000000d   Data   RO          946    .conststring        powerdrv.o
    0x0005f6ee   0x0000000b   Data   RO         1008    .conststring        epddrv.o
    0x0005f6f9   0x0000000d   Data   RO         1032    .conststring        spacedrv.o
    0x0005f706   0x00000009   Data   RO         1120    .conststring        fatfslib.o
    0x0005f70f   0x0000000f   Data   RO         1141    .conststring        photoagent.o
    0x0005f71e   0x0000000f   Data   RO         1205    .conststring        modemagent.o
    0x0005f72d   0x00000056   Data   RO         1394    .conststring        dataprocesslib.o
    0x0005f783   0x0000000e   Data   RO         1464    .conststring        fileagent.o
    0x0005f791   0x00000015   Data   RO         1504    .conststring        userdrv.o
    0x0005f7a6   0x00000150   Data   RO         2013    .conststring        atcmdparser.o
    0x0005f8f6   0x0000015e   Data   RO         2034    .conststring        quentelmodemlib.o
    0x0005fa54   0x000004d9   Data   RO         2311    .conststring        nand_ids.o
    0x0005ff2d   0x0000004b   Data   RO         2838    .conststring        yaffs_verify.o
    0x0005ff78   0x00000030   Data   RO         3717    Region$$Table       anon$$obj.o
    0x0005ffa8   0x00000008   Data   RO         3643    c$$dinf             fz_5s.l(fpconst.o)
    0x0005ffb0   0x00000110   Data   RO         3509    locale$$data        c_5.l(lc_ctype_c.o)
    0x000600c0   0x0000001c   Data   RO         3512    locale$$data        c_5.l(lc_numeric_c.o)


    Execution Region RW_RAM1 (Base: 0x000600dc, Size: 0x0164ff44, Max: 0xffffffff, ABSOLUTE, COMPRESSED[0x000006b4])

    Base Addr    Size         Type   Attr      Idx    E Section Name        Object

    0x000600dc   0x0000001c   Data   RW            4    .data               main.o
    0x000600f8   0x000001f4   Data   RW          214    .data               sys.o
    0x000602ec   0x00000060   Data   RW          230    .data               sys_timer.o
    0x0006034c   0x0000000c   Data   RW          271    .data               system_nuc970.o
    0x00060358   0x00000086   Data   RW          294    .data               uart.o
    0x000603de   0x00000002   PAD
    0x000603e0   0x00000028   Data   RW          335    .data               gpio.o
    0x00060408   0x00000058   Data   RW          352    .data               rtc.o
    0x00060460   0x0000000c   Data   RW          388    .data               i2c.o
    0x0006046c   0x00000020   Data   RW          410    .data               sdh.o
    0x0006048c   0x00000004   Data   RW          446    .data               adc.o
    0x00060490   0x0000000e   Data   RW          534    .data               guistandby.o
    0x0006049e   0x00000002   PAD
    0x000604a0   0x0000017c   Data   RW          554    .data               guimanager.o
    0x0006061c   0x00000088   Data   RW          607    .data               meterdata.o
    0x000606a4   0x00000014   Data   RW          667    .data               guiselspace.o
    0x000606b8   0x00000014   Data   RW          682    .data               guiseltime.o
    0x000606cc   0x0000000d   Data   RW          697    .data               guireaderinit.o
    0x000606d9   0x00000003   PAD
    0x000606dc   0x0000000d   Data   RW          712    .data               guideposit.o
    0x000606e9   0x00000003   PAD
    0x000606ec   0x0000000d   Data   RW          727    .data               guidepositfail.o
    0x000606f9   0x00000003   PAD
    0x000606fc   0x00000010   Data   RW          742    .data               guidepositok.o
    0x0006070c   0x0000000d   Data   RW          757    .data               guireplacebp.o
    0x00060719   0x00000003   PAD
    0x0006071c   0x0000000d   Data   RW          772    .data               guitester.o
    0x00060729   0x00000003   PAD
    0x0006072c   0x0000000d   Data   RW          787    .data               guitesterkeypad.o
    0x00060739   0x00000003   PAD
    0x0006073c   0x00000008   Data   RW          803    .data               paralib.o
    0x00060744   0x0000000d   Data   RW          827    .data               guifiledownload.o
    0x00060751   0x00000003   PAD
    0x00060754   0x0000000d   Data   RW          848    .data               guifree.o
    0x00060761   0x00000003   PAD
    0x00060764   0x0000000d   Data   RW          863    .data               guioff.o
    0x00060771   0x00000003   PAD
    0x00060774   0x00000044   Data   RW          877    .data               halinterface.o
    0x000607b8   0x00000028   Data   RW          910    .data               guidrv.o
    0x000607e0   0x00000011   Data   RW          930    .data               keydrv.o
    0x000607f1   0x00000003   PAD
    0x000607f4   0x00000038   Data   RW          947    .data               powerdrv.o
    0x0006082c   0x00000020   Data   RW          975    .data               timerdrv.o
    0x0006084c   0x00000010   Data   RW          989    .data               cardreader.o
    0x0006085c   0x00000048   Data   RW         1009    .data               epddrv.o
    0x000608a4   0x00000034   Data   RW         1033    .data               spacedrv.o
    0x000608d8   0x00000004   Data   RW         1052    .data               timelib.o
    0x000608dc   0x0000003c   Data   RW         1068    .data               ts2000drv.o
    0x00060918   0x00000013   Data   RW         1121    .data               fatfslib.o
    0x0006092b   0x00000001   PAD
    0x0006092c   0x00000024   Data   RW         1142    .data               photoagent.o
    0x00060950   0x00000014   Data   RW         1168    .data               jsoncmdlib.o
    0x00060964   0x00000028   Data   RW         1206    .data               modemagent.o
    0x0006098c   0x00000010   Data   RW         1270    .data               tarifflib.o
    0x0006099c   0x00000002   Data   RW         1288    .data               yaffs2drv.o
    0x0006099e   0x00000002   PAD
    0x000609a0   0x000000ac   Data   RW         1395    .data               dataprocesslib.o
    0x00060a4c   0x00000004   Data   RW         1416    .data               loglib.o
    0x00060a50   0x00000018   Data   RW         1445    .data               leddrv.o
    0x00060a68   0x00000048   Data   RW         1465    .data               fileagent.o
    0x00060ab0   0x00000018   Data   RW         1505    .data               userdrv.o
    0x00060ac8   0x00000184   Data   RW         1546    .data               interface.o
    0x00060c4c   0x00000011   Data   RW         1757    .data               buzzerdrv.o
    0x00060c5d   0x00000003   PAD
    0x00060c60   0x00000018   Data   RW         1775    .data               batterydrv.o
    0x00060c78   0x00000010   Data   RW         1792    .data               dipdrv.o
    0x00060c88   0x00000004   Data   RW         1806    .data               rs232commdrv.o
    0x00060c8c   0x00000014   Data   RW         1822    .data               flashdrvex.o
    0x00060ca0   0x00000008   Data   RW         1857    .data               sr04tdrv.o
    0x00060ca8   0x00000028   Data   RW         1874    .data               nt066edrv.o
    0x00060cd0   0x00000003   Data   RW         1936    .data               ff.o
    0x00060cd3   0x00000001   PAD
    0x00060cd4   0x0000000c   Data   RW         1961    .data               cjson.o
    0x00060ce0   0x0000017c   Data   RW         2014    .data               atcmdparser.o
    0x00060e5c   0x000004fa   Data   RW         2035    .data               quentelmodemlib.o
    0x00061356   0x00000002   PAD
    0x00061358   0x00000008   Data   RW         2117    .data               mtdpart.o
    0x00061360   0x00000010   Data   RW         2167    .data               nand.o
    0x00061370   0x00000010   Data   RW         2274    .data               nand_bbt.o
    0x00061380   0x00000020   Data   RW         2560    .data               yaffs_malloc.o
    0x000613a0   0x00000008   Data   RW         2821    .data               yaffs_tagscompat.o
    0x000613a8   0x00000004   Data   RW         2839    .data               yaffs_verify.o
    0x000613ac   0x00000008   Data   RW         2879    .data               yaffs_yaffs2.o
    0x000613b4   0x0000001c   Data   RW         2907    .data               yaffsfs.o
    0x000613d0   0x00000004   Data   RW         2928    .data               fmi_nand.o
    0x000613d4   0x0000003c   Data   RW         3051    .data               freertos.lib(tasks.o)
    0x00061410   0x00000018   Data   RW         3077    .data               freertos.lib(heap_4.o)
    0x00061428   0x00000004   Data   RW         3106    .data               freertos.lib(port.o)
    0x0006142c   0x00000140   Zero   RW          229    .bss                sys_timer.o
    0x0006156c   0x00002a94   PAD
    0x00064000   0x00024000   Zero   RW          270    .bss                system_nuc970.o
    0x00088000   0x0000023c   Zero   RW          293    .bss                uart.o
    0x0008823c   0x000000a4   Zero   RW          334    .bss                gpio.o
    0x000882e0   0x00000010   Zero   RW          370    .bss                spi.o
    0x000882f0   0x000003d0   Zero   RW          387    .bss                i2c.o
    0x000886c0   0x00000940   PAD
    0x00089000   0x00000230   Zero   RW          408    .bss                sdh.o
    0x00089230   0x00000488   Zero   RW          445    .bss                adc.o
    0x000896b8   0x00000c13   Zero   RW          604    .bss                meterdata.o
    0x0008a2cb   0x00000273   Zero   RW          801    .bss                paralib.o
    0x0008a53e   0x00000002   PAD
    0x0008a540   0x00000028   Zero   RW          944    .bss                powerdrv.o
    0x0008a568   0x0000000c   Zero   RW          974    .bss                timerdrv.o
    0x0008a574   0x000003d0   Zero   RW         1006    .bss                epddrv.o
    0x0008a944   0x00000058   Zero   RW         1050    .bss                timelib.o
    0x0008a99c   0x000004cc   Zero   RW         1066    .bss                ts2000drv.o
    0x0008ae68   0x000030b4   Zero   RW         1118    .bss                fatfslib.o
    0x0008df1c   0x00001035   Zero   RW         1268    .bss                tarifflib.o
    0x0008ef51   0x000000ff   Zero   RW         1415    .bss                loglib.o
    0x0008f050   0x00010600   Zero   RW         1462    .bss                fileagent.o
    0x0009f650   0x00000010   Zero   RW         1611    .bss                uart1drv.o
    0x0009f660   0x00000010   Zero   RW         1628    .bss                uart2drv.o
    0x0009f670   0x00000010   Zero   RW         1642    .bss                uart3drv.o
    0x0009f680   0x00000010   Zero   RW         1659    .bss                uart4drv.o
    0x0009f690   0x00000010   Zero   RW         1676    .bss                uart7drv.o
    0x0009f6a0   0x00000010   Zero   RW         1693    .bss                uart8drv.o
    0x0009f6b0   0x00000010   Zero   RW         1707    .bss                uart10drv.o
    0x0009f6c0   0x00000038   Zero   RW         1774    .bss                batterydrv.o
    0x0009f6f8   0x00006038   Zero   RW         1820    .bss                flashdrvex.o
    0x000a5730   0x00000010   PAD
    0x000a5740   0x0000300c   Zero   RW         1917    .bss                diskio.o
    0x000a874c   0x0000000c   Zero   RW         1934    .bss                ff.o
    0x000a8758   0x0000000f   Zero   RW         1959    .bss                cjson.o
    0x000a8767   0x00202000   Zero   RW         2012    .bss                atcmdparser.o
    0x002aa767   0x00001000   Zero   RW         2032    .bss                quentelmodemlib.o
    0x002ab767   0x00000001   PAD
    0x002ab768   0x00000080   Zero   RW         2071    .bss                mtdcore.o
    0x002ab7e8   0x000001d8   Zero   RW         2166    .bss                nand.o
    0x002ab9c0   0x00000920   Zero   RW         2198    .bss                nand_base.o
    0x002ac2e0   0x000000b4   Zero   RW         2272    .bss                nand_bbt.o
    0x002ac394   0x0000006c   PAD
    0x002ac400   0x00400000   Zero   RW         2558    .bss                yaffs_malloc.o
    0x006ac400   0x00000020   Zero   RW         2820    .bss                yaffs_tagscompat.o
    0x006ac420   0x00003610   Zero   RW         2906    .bss                yaffsfs.o
    0x006afa30   0x00000430   Zero   RW         2926    .bss                fmi_nand.o
    0x006afe60   0x000001a4   Zero   RW         3050    .bss                freertos.lib(tasks.o)
    0x006b0004   0x01000000   Zero   RW         3076    .bss                freertos.lib(heap_4.o)
    0x016b0004   0x00000004   Zero   RW         3377    .bss                c_5.l(rt_heap_descriptor.o)
    0x016b0008   0x00000004   Zero   RW         3382    .bss                c_5.l(rt_errno_addr.o)
    0x016b000c   0x00000014   Zero   RW         3458    .bss                c_5.l(rt_locale.o)


==============================================================================

Image component sizes


      Code (inc. data)   RO Data    RW Data    ZI Data      Debug   Object Name

      4072         28          0          4       1160       7130   adc.o
      1740        136        336        380    2105344       7483   atcmdparser.o
      1972        184          0         24         56       4701   batterydrv.o
       804        168          0         17          0       1691   buzzerdrv.o
      1000        352          0         16          0       2699   cardreader.o
       248         12       1216          0          0       4565   ccsbcs.o
     12748        160          5         12         15      26960   cjson.o
      8464       2984        453        172          0      12735   dataprocesslib.o
      1932        736          0         16          0       2526   dipdrv.o
       764         48          0          0      12300       2502   diskio.o
     15500       1432        146         72        976      25940   epddrv.o
      1480         44          0          0          0       2363   etimer.o
      1828        800        149         19      12468       4275   fatfslib.o
     22156        544        186          3         12      34211   ff.o
     10260       2384        751         72      67072      20962   fileagent.o
      3348        556         79         20      24632       7340   flashdrvex.o
      4580        236        100          4       1072      22059   fmi_nand.o
      3020         32          0         40        164      10540   gpio.o
      1472        152        330         13          0       3673   guideposit.o
       784        128         94         13          0       2785   guidepositfail.o
       784        128         92         16          0       2789   guidepositok.o
      1132        284         11         40          0       8614   guidrv.o
       768        128         95         13          0       3029   guifiledownload.o
       688        112         87         13          0       2837   guifree.o
       988        304          0        380          0       3402   guimanager.o
       688        112         86         13          0       2821   guioff.o
       912        132         93         13          0       3073   guireaderinit.o
      1312        168         92         13          0       3525   guireplacebp.o
      1444        148        366         20          0       3241   guiselspace.o
      1364        184         90         20          0       3133   guiseltime.o
      2004        516        285         14          0       4190   guistandby.o
       992        164         89         13          0       3061   guitester.o
      1004        176         95         13          0       3145   guitesterkeypad.o
        76         16          0         68          0       5357   halinterface.o
      3096        188          0         12        976       5892   i2c.o
       344         36          0          0          0       2053   i2c1drv.o
       268         28          0        388          0       3132   interface.o
      1892        236          0         20          0       5475   jsoncmdlib.o
       520        112          0         17          0       2001   keydrv.o
      1236          0          0          0          0       3401   ledcmdlib.o
      2964        720          0         24          0       5618   leddrv.o
       880        276          0          4        255       2220   loglib.o
      3976        796         78         28          0      71638   main.o
      4740        700        488        136       3091      10999   meterdata.o
      1584        544        159         40          0       8309   modemagent.o
       716        128          0          0        128      12300   mtdcore.o
      4320        388        242          8          0      24416   mtdpart.o
       408         48          0         16        472      15111   nand.o
     20452        876        268          0       2336      55401   nand_base.o
     10288        804         97         16        180      31424   nand_bbt.o
         0          0       3049          0          0      17224   nand_ids.o
      2880        928          0         40          0       8132   nt066edrv.o
      3540       1224         91          8        627       8963   paralib.o
       536        172         15         36          0       1926   photoagent.o
      2796        748         83         56         40       5458   powerdrv.o
      6480       1772        847       1274       4096      18979   quentelmodemlib.o
       480        184          0          4          0       2127   rs232commdrv.o
      6632        116          0         88          0      16354   rtc.o
       932         88          0          0          0       3153   sddrv.o
      7068        328        152         32        560      16061   sdh.o
      1872        796         13         52          0       3524   spacedrv.o
      1632         28          0          0         16       3345   spi.o
       576         20          0          0          0       1390   spi0drv.o
       540         20          0          0          0       1390   spi1drv.o
      3028        184          0          8          0       5992   sr04tdrv.o
        64          4          0          0          0       1364   standalone.o
       172         60          0          0          0        352   startup_nuc970.o
      2356         60          0        500          0       6647   sys.o
        48          0          0          0          0        260   sys_nuc970.o
      3436        104          0         96        320      61062   sys_timer.o
      1428          4          0          0          0       4167   sys_uart.o
      2352         40          0         12     147456       5768   system_nuc970.o
      6292       1672        186         16       4149       9132   tarifflib.o
      1384        100        198          4         88       3618   timelib.o
       616         88          0         32         12       2390   timerdrv.o
      6688       1900         71         60       1228       8692   ts2000drv.o
     10004        640          0        134        572      30028   uart.o
       960        148          0          0         16       2564   uart10drv.o
       956        144          0          0         16       2543   uart1drv.o
       812        124          0          0         16       2234   uart2drv.o
       824        144          0          0         16       2531   uart3drv.o
       868        144          0          0         16       2543   uart4drv.o
       828        144          0          0         16       2535   uart7drv.o
       720        124          0          0         16       2230   uart8drv.o
         0          0          0          0          0      23792   user.o
       304        136         21         24          0       5550   userdrv.o
      2948       1020         67          2          0      38592   yaffs2drv.o
      2016        268          0          0          0      19256   yaffs_allocator.o
       656          0          0          0          0      13110   yaffs_attribs.o
       924        160          0          0          0       4246   yaffs_bitmap.o
      3364        608        148          0          0       5942   yaffs_checkptrw.o
      1248         24        256          0          0       3580   yaffs_ecc.o
     32008       3092        592          0          0      68926   yaffs_guts.o
      1476        328        152         32    4194304       4126   yaffs_malloc.o
      1060          0          0          0          0      26869   yaffs_mtdif.o
      1784        344          0          0          0      25167   yaffs_mtdif2.o
      1368          0          0          0          0       3282   yaffs_nameval.o
      1064        268          0          0          0       3450   yaffs_nand.o
      1068         60         91          0          0       2990   yaffs_packedtags2.o
      1584          0          0          0          0       2570   yaffs_qsort.o
      2024        152          0          0          0      15840   yaffs_summary.o
      3436        684          0          8         32       6525   yaffs_tagscompat.o
      5324       1484        407          4          0       7227   yaffs_verify.o
      2744        412         98          0          0      15334   yaffs_yaffs1.o
     11340       1356        753          8          0      28635   yaffs_yaffs2.o
     20168        124          0         28      13840      43768   yaffsfs.o

    ----------------------------------------------------------------------
    347744      42352      14052       4856    6613556    1152202   Object Totals
        24         12         48          0          0          0   (incl. Generated)
         0          0         56         43      13395          0   (incl. Padding)

    ----------------------------------------------------------------------

      Code (inc. data)   RO Data    RW Data    ZI Data      Debug   Library Member Name

        44          4          0          0          0         84   __2sprintf.o
        92          0          0          0          0          0   __dczerorl2.o
         8          0          0          0          0         68   __main.o
       392          6         17          0          0         76   __printf_flags_ss_wp.o
        14          0          0          0          0         60   __printf_wp.o
        60          8          0          0          0          0   __scatter.o
        40          0          0          0          0          0   __scatter_copy.o
        44          0          0          0          0          0   __scatter_zi.o
        30          0          0          0          0         60   _chval.o
         0          0         12          0          0          0   _monlen.o
         8          0          0          0          0          0   _printf_c.o
        54          0          0          0          0        100   _printf_char.o
        48          6          0          0          0         88   _printf_char_common.o
         8          0          0          0          0          0   _printf_d.o
       116         18          0          0          0         76   _printf_dec.o
         8          0          0          0          0          0   _printf_e.o
         8          0          0          0          0          0   _printf_f.o
      1044         14          0          0          0        176   _printf_fp_dec.o
       136         16          0          0          0         76   _printf_fp_infnan.o
        96          4         40          0          0         72   _printf_hex_int.o
       176          0          0          0          0         84   _printf_intcommon.o
        78          0          0          0          0        100   _printf_pad.o
         0          0          0          0          0          0   _printf_percent.o
         8          0          0          0          0          0   _printf_percent_end.o
         8          0          0          0          0          0   _printf_s.o
        82          0          0          0          0         72   _printf_str.o
         8          0          0          0          0          0   _printf_u.o
         8          0          0          0          0          0   _printf_x.o
        30          0          0          0          0         92   _rserrno.o
        68          0          0          0          0         76   _sgetc.o
        10          0          0          0          0         60   _sputc.o
        16          0          0          0          0         68   aeabi_memset.o
       416          0          0          0          0        144   aeabi_sdiv.o
       212          6        148          0          0         80   bigflt0.o
      2200        132          0          0          0        940   btod.o
        12          0          0          0          0         64   exit.o
        76          0          0          0          0         72   h1_free.o
        18          0          0          0          0         68   isspace.o
        72          8        272          0          0         76   lc_ctype_c.o
        72          8         28          0          0         76   lc_numeric_c.o
         2          0          0          0          0          0   libinit.o
        30          0          0          0          0          0   libinit2.o
         2          0          0          0          0          0   libshutdown.o
         2          0          0          0          0          0   libshutdown2.o
        24          0          0          0          0         76   llmul.o
        80          0          0          0          0         76   llsdiv.o
        40          0          0          0          0         68   llshl.o
        40          0          0          0          0         68   llsshr.o
       152          0          0          0          0         80   lludiv10.o
       752         64          0          0          0         84   lludiv5.o
        40          0          0          0          0         68   llushr.o
       116          0          0          0          0         68   memcmp.o
       432         14          0          0          0        112   mktime.o
       648          0          0          0          0        120   qsortnoex.o
        20          4          0          0          0         76   rt_ctype_table.o
        12          4          0          0          4         68   rt_errno_addr.o
        12          4          0          0          4         68   rt_heap_descriptor.o
        12          4          0          0         20         68   rt_locale.o
        64          0          0          0          0         68   rt_memclr.o
        84          0          0          0          0         80   rt_memclr_w.o
       212          0          0          0          0         68   rt_memcpy.o
       100          0          0          0          0         80   rt_memcpy_w.o
         0          0          0          0          0          0   rtentry.o
        44          4          0          0          0          0   rtentry2.o
         8          0          0          0          0          0   rtentry4.o
         4          0          0          0          0          0   rtexit.o
        12          0          0          0          0          0   rtexit2.o
        44          0          0          0          0         68   rtudiv10.o
      1240         26          0          0          0        124   scanf_fp.o
       816         14          0          0          0         84   scanf_hexfp.o
       328         18          0          0          0         84   scanf_infnan.o
        24          0          0          0          0         60   strcat.o
        22          0          0          0          0         60   strchr.o
       160          4          0          0          0         80   strcmp.o
        76          4          0          0          0         72   strcpy.o
        68          6          0          0          0         72   strlen.o
       148          4          0          0          0         76   strncmp.o
       108          4          0          0          0         76   strncpy.o
       168         16          0          0          0        120   strtod.o
        26          0          0          0          0         68   tolower.o
        32          0          0          0          0         68   uread4.o
        32          0          0          0          0         68   uwrite4.o
       888         24          0         24   16777216       3072   heap_4.o
       276          0          0          0          0       1734   list.o
      1232        428        484          0          0      14033   osmisc.o
       380         24          0          4          0       1663   port.o
       336         12          0          0          0        284   portasm.o
      2812          0          0          0          0      11741   queue.o
      7704        112          0         60        420      20980   tasks.o
       108          4          0          0          0         92   d2f.o
       876         16          0          0          0        352   daddsub_clz.o
        16          4          0          0          0         68   dcheck1.o
        28          0          0          0          0         68   dcmpi.o
       720        140          0          0          0        208   ddiv.o
       148          4          0          0          0         92   deqf.o
       112          4          0          0          0         92   dfix.o
        96          0          0          0          0        136   dflt_clz.o
       148          4          0          0          0         92   dleqf.o
       376         16          0          0          0        104   dmul.o
       184          0          0          0          0         92   dnaninf.o
        16          0          0          0          0         68   dretinf.o
       140          0          0          0          0         80   drleqf.o
       100          4          0          0          0         84   f2d.o
        84          4          0          0          0         84   ffixu.o
        40          0          0          0          0         68   fflt_clz.o
       256          4          0          0          0         84   fmul.o
       160          0          0          0          0         84   fnaninf.o
         0          0          8          0          0          0   fpconst.o
        16          0          0          0          0         68   fretinf.o
         8          0          0          0          0         68   istatus.o
         4          0          0          0          0         68   printf1.o
       116          0          0          0          0         68   retnan.o
       104          0          0          0          0         68   scalbn.o
         4          0          0          0          0         68   scanf1.o
         8          0          0          0          0         84   scanf2.o
        60          0          0          0          0         68   trapv.o
         0          0          0          0          0          0   usenofp.o
        20          4          0          0          0         68   dunder.o
       304         20          0          0          0         84   floor.o
        48          4          0          0          0         68   fpclassify.o
       116          8          0          0          0         76   frexp.o
       232          8          0          0          0        156   ldexp.o
       232         12          0          0          0        160   narrow.o
        48          0          0          0          0         80   strtod.o

    ----------------------------------------------------------------------
     30628       1284       1012         88   16777664      62291   Library Totals
        16          0          3          0          0          0   (incl. Padding)

    ----------------------------------------------------------------------

      Code (inc. data)   RO Data    RW Data    ZI Data      Debug   Library Name

     12056        424        517          0         28       5584   c_5.l
     13628        600        484         88   16777636      53507   freertos.lib
      3928        204          8          0          0       2508   fz_5s.l
      1000         56          0          0          0        692   m_5s.l

    ----------------------------------------------------------------------
     30628       1284       1012         88   16777664      62291   Library Totals

    ----------------------------------------------------------------------

==============================================================================


      Code (inc. data)   RO Data    RW Data    ZI Data      Debug   

    378372      43636      15064       4944   23391220    1198629   Grand Totals
    378372      43636      15064       1716   23391220    1198629   ELF Image Totals (compressed)
    378372      43636      15064       1716          0          0   ROM Totals

==============================================================================

    Total RO  Size (Code + RO Data)               393436 ( 384.21kB)
    Total RW  Size (RW Data + ZI Data)          23396164 (22847.82kB)
    Total ROM Size (Code + RO Data + RW Data)     395152 ( 385.89kB)

==============================================================================

