; generated by ARM C/C++ Compiler, 5.03 [Build 76]
; commandline ArmCC [--c99 --list --debug -c --asm --interleave -o.\obj\guidrv.o --asm_dir=.\lst\ --list_dir=.\lst\ --depend=.\obj\guidrv.d --cpu=ARM926EJ-S --apcs=interwork -O0 -I.\src -I..\..\common\src\BSP\Driver\Include -I..\..\common\src\FreeRTOS -I..\..\common\src\FreeRTOS\Source\include -I..\..\common\src\FreeRTOS\Source\portable\RVDS\ARM926EJ-S -I..\..\common\src\BSP\ThirdParty\FATFS\src -I.\src\userdrv -I.\src\syshal -I.\src\user -I.\src\userdrv\vl53l0x\core\inc -I.\src\userdrv\vl53l0x\platform\inc -I.\src\syshal\json -I.\src\syshal\modemlib -I..\..\common\src\BSP\ThirdParty\yaffs2 -I..\..\common\src\BSP\ThirdParty\yaffs2\include -I..\..\common\src\BSP\ThirdParty\yaffs2\include\asm -I..\..\common\src\BSP\ThirdParty\yaffs2\include\linux -I.\src\syshal\yaffs2 -I..\..\common\src\BSP\Library\SmartcardLib\Include -I.\src\syshal\cardlib -I.\src\syshal\cardlog -I.\src\syshal\blk -I..\..\common\src\BSP\Library\USB_HOST\Inc -I..\..\common\src\BSP\Library\USB_HOST\Inc\usb_uvc -IC:\Keil\ARM\RV31\INC -IC:\Keil\ARM\CMSIS\Include -IC:\Keil\ARM\Inc\Toshiba -DEPM_PROJECT -DCONFIG_YAFFS_DIRECT -DCONFIG_YAFFS_SHORT_NAMES_IN_RAM -DCONFIG_YAFFS_YAFFS2 -DNO_Y_INLINE -DCONFIG_YAFFS_PROVIDE_DEFS -DCONFIG_YAFFSFS_PROVIDE_VALUES --omf_browse=.\obj\guidrv.crf src\SysHal\guidrv.c]
                          ARM

                          AREA ||.text||, CODE, READONLY, ALIGN=2

                  guiDrvPreOffCallback PROC
;;;54     /*-----------------------------------------*/
;;;55     static BOOL guiDrvPreOffCallback(int flag)
000000  e92d4010          PUSH     {r4,lr}
;;;56     {
000004  e1a04000          MOV      r4,r0
;;;57         guiDrvIgnoreRun = TRUE;
000008  e3a00001          MOV      r0,#1
00000c  e59f12d0          LDR      r1,|L1.740|
000010  e5c10000          STRB     r0,[r1,#0]  ; guiDrvIgnoreRun
;;;58         if(pUserGuiInstance != NULL)
000014  e59f02cc          LDR      r0,|L1.744|
000018  e5900000          LDR      r0,[r0,#0]  ; pUserGuiInstance
00001c  e3500000          CMP      r0,#0
000020  0a000007          BEQ      |L1.68|
;;;59             return pUserGuiInstance->guiInstance->powerCallback(GUI_POWER_PREV_OFF_INDEX, flag);
000024  e59f02bc          LDR      r0,|L1.744|
000028  e5900000          LDR      r0,[r0,#0]  ; pUserGuiInstance
00002c  e5900004          LDR      r0,[r0,#4]
000030  e1a01004          MOV      r1,r4
000034  e5902010          LDR      r2,[r0,#0x10]
000038  e3a00004          MOV      r0,#4
00003c  e12fff32          BLX      r2
                  |L1.64|
;;;60         else
;;;61             return FALSE;
;;;62     }
000040  e8bd8010          POP      {r4,pc}
                  |L1.68|
000044  e3a00000          MOV      r0,#0                 ;61
000048  eafffffc          B        |L1.64|
;;;63     static BOOL guiDrvOffCallback(int flag)
                          ENDP

                  guiDrvOffCallback PROC
00004c  e92d4010          PUSH     {r4,lr}
;;;64     {
000050  e1a04000          MOV      r4,r0
;;;65         if(pKeyGetInterface != NULL)
000054  e59f0290          LDR      r0,|L1.748|
000058  e5900000          LDR      r0,[r0,#0]  ; pKeyGetInterface
00005c  e3500000          CMP      r0,#0
000060  0a000004          BEQ      |L1.120|
;;;66         {
;;;67             pKeyGetInterface->setPowerFunc(FALSE);
000064  e59f0280          LDR      r0,|L1.748|
000068  e5900000          LDR      r0,[r0,#0]  ; pKeyGetInterface
00006c  e5901008          LDR      r1,[r0,#8]
000070  e3a00000          MOV      r0,#0
000074  e12fff31          BLX      r1
                  |L1.120|
;;;68         }
;;;69         if(pUserGuiInstance != NULL)
000078  e59f0268          LDR      r0,|L1.744|
00007c  e5900000          LDR      r0,[r0,#0]  ; pUserGuiInstance
000080  e3500000          CMP      r0,#0
000084  0a000007          BEQ      |L1.168|
;;;70             return pUserGuiInstance->guiInstance->powerCallback(GUI_POWER_OFF_INDEX, flag);
000088  e59f0258          LDR      r0,|L1.744|
00008c  e5900000          LDR      r0,[r0,#0]  ; pUserGuiInstance
000090  e5900004          LDR      r0,[r0,#4]
000094  e1a01004          MOV      r1,r4
000098  e5902010          LDR      r2,[r0,#0x10]
00009c  e3a00003          MOV      r0,#3
0000a0  e12fff32          BLX      r2
                  |L1.164|
;;;71         else
;;;72             return FALSE;    
;;;73     }
0000a4  e8bd8010          POP      {r4,pc}
                  |L1.168|
0000a8  e3a00000          MOV      r0,#0                 ;72
0000ac  eafffffc          B        |L1.164|
;;;74     static BOOL guiDrvOnCallback(int flag)
                          ENDP

                  guiDrvOnCallback PROC
0000b0  e92d4010          PUSH     {r4,lr}
;;;75     {
0000b4  e1a04000          MOV      r4,r0
;;;76         guiDrvIgnoreRun = FALSE;
0000b8  e3a00000          MOV      r0,#0
0000bc  e59f1220          LDR      r1,|L1.740|
0000c0  e5c10000          STRB     r0,[r1,#0]  ; guiDrvIgnoreRun
;;;77         if(pKeyGetInterface != NULL)
0000c4  e59f0220          LDR      r0,|L1.748|
0000c8  e5900000          LDR      r0,[r0,#0]  ; pKeyGetInterface
0000cc  e3500000          CMP      r0,#0
0000d0  0a000004          BEQ      |L1.232|
;;;78         {
;;;79             pKeyGetInterface->setPowerFunc(TRUE);
0000d4  e59f0210          LDR      r0,|L1.748|
0000d8  e5900000          LDR      r0,[r0,#0]  ; pKeyGetInterface
0000dc  e5901008          LDR      r1,[r0,#8]
0000e0  e3a00001          MOV      r0,#1
0000e4  e12fff31          BLX      r1
                  |L1.232|
;;;80         }
;;;81         
;;;82         if(pUserGuiInstance != NULL)
0000e8  e59f01f8          LDR      r0,|L1.744|
0000ec  e5900000          LDR      r0,[r0,#0]  ; pUserGuiInstance
0000f0  e3500000          CMP      r0,#0
0000f4  0a000007          BEQ      |L1.280|
;;;83             return pUserGuiInstance->guiInstance->powerCallback(GUI_POWER_ON_INDEX, flag);
0000f8  e59f01e8          LDR      r0,|L1.744|
0000fc  e5900000          LDR      r0,[r0,#0]  ; pUserGuiInstance
000100  e5900004          LDR      r0,[r0,#4]
000104  e1a01004          MOV      r1,r4
000108  e5902010          LDR      r2,[r0,#0x10]
00010c  e3a00002          MOV      r0,#2
000110  e12fff32          BLX      r2
                  |L1.276|
;;;84         else
;;;85             return FALSE; 
;;;86     }
000114  e8bd8010          POP      {r4,pc}
                  |L1.280|
000118  e3a00000          MOV      r0,#0                 ;85
00011c  eafffffc          B        |L1.276|
;;;87     static BOOL guiDrvCheckStatus(int flag)
                          ENDP

                  guiDrvCheckStatus PROC
000120  e92d4010          PUSH     {r4,lr}
;;;88     {
000124  e1a04000          MOV      r4,r0
;;;89         if(pUserGuiInstance != NULL)
000128  e59f01b8          LDR      r0,|L1.744|
00012c  e5900000          LDR      r0,[r0,#0]  ; pUserGuiInstance
000130  e3500000          CMP      r0,#0
000134  0a000007          BEQ      |L1.344|
;;;90             return pUserGuiInstance->guiInstance->powerCallback(GUI_POWER_STATUS_INDEX, flag);
000138  e59f01a8          LDR      r0,|L1.744|
00013c  e5900000          LDR      r0,[r0,#0]  ; pUserGuiInstance
000140  e5900004          LDR      r0,[r0,#4]
000144  e1a01004          MOV      r1,r4
000148  e5902010          LDR      r2,[r0,#0x10]
00014c  e3a00001          MOV      r0,#1
000150  e12fff32          BLX      r2
                  |L1.340|
;;;91         else
;;;92             return FALSE;  
;;;93     }
000154  e8bd8010          POP      {r4,pc}
                  |L1.344|
000158  e3a00000          MOV      r0,#0                 ;92
00015c  eafffffc          B        |L1.340|
;;;94     static BOOL GUITimerCallbackFunc(uint8_t timerIndex) 
                          ENDP

                  GUITimerCallbackFunc PROC
000160  e92d4010          PUSH     {r4,lr}
;;;95     {
000164  e1a04000          MOV      r4,r0
;;;96         //sysprintf("\r\n [ INFO GUI Timer] Timer [%d] : tick = %d!!\n", timerIndex, xTaskGetTickCount());
;;;97         if(guiDrvIgnoreRun)
000168  e59f0174          LDR      r0,|L1.740|
00016c  e5d00000          LDRB     r0,[r0,#0]  ; guiDrvIgnoreRun
000170  e3500000          CMP      r0,#0
000174  0a000003          BEQ      |L1.392|
;;;98         {
;;;99             sysprintf("GUITimerCallbackFunc : ignore!!\n");
000178  e28f0e17          ADR      r0,|L1.752|
00017c  ebfffffe          BL       sysprintf
;;;100            return FALSE;
000180  e3a00000          MOV      r0,#0
                  |L1.388|
;;;101        }
;;;102        
;;;103        if(pGuiTimerCallbackFunc != NULL)
;;;104            return pGuiTimerCallbackFunc(timerIndex);
;;;105        else
;;;106            return FALSE;
;;;107    }
000184  e8bd8010          POP      {r4,pc}
                  |L1.392|
000188  e59f0184          LDR      r0,|L1.788|
00018c  e5900000          LDR      r0,[r0,#0]            ;103  ; pGuiTimerCallbackFunc
000190  e3500000          CMP      r0,#0                 ;103
000194  0a000004          BEQ      |L1.428|
000198  e1a00004          MOV      r0,r4                 ;104
00019c  e59f1170          LDR      r1,|L1.788|
0001a0  e5911000          LDR      r1,[r1,#0]            ;104  ; pGuiTimerCallbackFunc
0001a4  e12fff31          BLX      r1                    ;104
0001a8  eafffff5          B        |L1.388|
                  |L1.428|
0001ac  e3a00000          MOV      r0,#0                 ;106
0001b0  eafffff3          B        |L1.388|
;;;108    static BOOL GUIKeyCallbackFunc(uint8_t keyId, uint8_t downUp) 
                          ENDP

                  GUIKeyCallbackFunc PROC
0001b4  e92d4070          PUSH     {r4-r6,lr}
;;;109    {
0001b8  e1a04000          MOV      r4,r0
0001bc  e1a05001          MOV      r5,r1
;;;110        //sysprintf(" [ INFO GUI Key] :  keyId = %d, downUp = %d\n", keyId, downUp);
;;;111        if(guiDrvIgnoreRun)
0001c0  e59f011c          LDR      r0,|L1.740|
0001c4  e5d00000          LDRB     r0,[r0,#0]  ; guiDrvIgnoreRun
0001c8  e3500000          CMP      r0,#0
0001cc  0a000003          BEQ      |L1.480|
;;;112        {
;;;113            sysprintf("GUITimerCallbackFunc : ignore!!\n");
0001d0  e28f0f46          ADR      r0,|L1.752|
0001d4  ebfffffe          BL       sysprintf
;;;114            return FALSE;
0001d8  e3a00000          MOV      r0,#0
                  |L1.476|
;;;115        }
;;;116        if(pGuiKeyCallbackFunc != NULL)
;;;117        {
;;;118            //BOOL reVal = ;        
;;;119            return pGuiKeyCallbackFunc(keyId, downUp);//reVal;
;;;120        }
;;;121        else
;;;122        {
;;;123            return FALSE;
;;;124        }
;;;125    }
0001dc  e8bd8070          POP      {r4-r6,pc}
                  |L1.480|
0001e0  e59f0130          LDR      r0,|L1.792|
0001e4  e5900000          LDR      r0,[r0,#0]            ;116  ; pGuiKeyCallbackFunc
0001e8  e3500000          CMP      r0,#0                 ;116
0001ec  0a000005          BEQ      |L1.520|
0001f0  e1a01005          MOV      r1,r5                 ;119
0001f4  e1a00004          MOV      r0,r4                 ;119
0001f8  e59f2118          LDR      r2,|L1.792|
0001fc  e5922000          LDR      r2,[r2,#0]            ;119  ; pGuiKeyCallbackFunc
000200  e12fff32          BLX      r2                    ;119
000204  eafffff4          B        |L1.476|
                  |L1.520|
000208  e3a00000          MOV      r0,#0                 ;123
00020c  eafffff2          B        |L1.476|
;;;126    /*------------------------------------------*/
                          ENDP

                  GUIDrvInit PROC
;;;128    /*------------------------------------------*/
;;;129    BOOL GUIDrvInit(BOOL testModeFlag)
000210  e92d4010          PUSH     {r4,lr}
;;;130    {
000214  e1a04000          MOV      r4,r0
;;;131        sysprintf("GUIDrvInit!!\n");
000218  e28f00fc          ADR      r0,|L1.796|
00021c  ebfffffe          BL       sysprintf
;;;132        
;;;133        PowerRegCallback(&guiDrvPowerCallabck);
000220  e59f0104          LDR      r0,|L1.812|
000224  ebfffffe          BL       PowerRegCallback
;;;134        
;;;135        pKeyGetInterface = KeyGetInterface();
000228  ebfffffe          BL       KeyGetInterface
00022c  e59f10b8          LDR      r1,|L1.748|
000230  e5810000          STR      r0,[r1,#0]  ; pKeyGetInterface
;;;136        if(pKeyGetInterface == NULL)
000234  e2810000          ADD      r0,r1,#0
000238  e5900000          LDR      r0,[r0,#0]  ; pKeyGetInterface
00023c  e3500000          CMP      r0,#0
000240  1a000003          BNE      |L1.596|
;;;137        {
;;;138            sysprintf("GUIDrvInit ERROR (pKeyGetInterface == NULL)!!\n");
000244  e28f00e4          ADR      r0,|L1.816|
000248  ebfffffe          BL       sysprintf
;;;139            return FALSE;
00024c  e3a00000          MOV      r0,#0
                  |L1.592|
;;;140        }
;;;141        if(pKeyGetInterface->initFunc() == FALSE)
;;;142        {
;;;143            sysprintf("GUIDrvInit ERROR (pKeyGetInterface initFunc false)!!\n");
;;;144            return FALSE;
;;;145        }
;;;146        pKeyGetInterface->setCallbackFunc(GUIKeyCallbackFunc);
;;;147        
;;;148        pTimerGetInterface = TimerGetInterface();
;;;149        if(pTimerGetInterface == NULL)
;;;150        {
;;;151            sysprintf("GUIDrvInit ERROR (pTimerGetInterface == NULL)!!\n");
;;;152            return FALSE;
;;;153        }
;;;154        if(pTimerGetInterface->initFunc() == FALSE)
;;;155        {
;;;156            sysprintf("GUIDrvInit ERROR (pTimerGetInterface initFunc false)!!\n");
;;;157            return FALSE;
;;;158        }
;;;159        pTimerGetInterface->setCallbackFunc(GUITimerCallbackFunc);
;;;160        return TRUE;
;;;161    }
000250  e8bd8010          POP      {r4,pc}
                  |L1.596|
000254  e59f1090          LDR      r1,|L1.748|
000258  e5911000          LDR      r1,[r1,#0]            ;141  ; pKeyGetInterface
00025c  e5910000          LDR      r0,[r1,#0]            ;141
000260  e12fff30          BLX      r0                    ;141
000264  e3500000          CMP      r0,#0                 ;141
000268  1a000003          BNE      |L1.636|
00026c  e28f00ec          ADR      r0,|L1.864|
000270  ebfffffe          BL       sysprintf
000274  e3a00000          MOV      r0,#0                 ;144
000278  eafffff4          B        |L1.592|
                  |L1.636|
00027c  e59f0068          LDR      r0,|L1.748|
000280  e5900000          LDR      r0,[r0,#0]            ;146  ; pKeyGetInterface
000284  e5901004          LDR      r1,[r0,#4]            ;146
000288  e59f0108          LDR      r0,|L1.920|
00028c  e12fff31          BLX      r1                    ;146
000290  ebfffffe          BL       TimerGetInterface
000294  e59f1100          LDR      r1,|L1.924|
000298  e5810000          STR      r0,[r1,#0]            ;148  ; pTimerGetInterface
00029c  e2810000          ADD      r0,r1,#0              ;149
0002a0  e5900000          LDR      r0,[r0,#0]            ;149  ; pTimerGetInterface
0002a4  e3500000          CMP      r0,#0                 ;149
0002a8  1a000003          BNE      |L1.700|
0002ac  e28f00ec          ADR      r0,|L1.928|
0002b0  ebfffffe          BL       sysprintf
0002b4  e3a00000          MOV      r0,#0                 ;152
0002b8  eaffffe4          B        |L1.592|
                  |L1.700|
0002bc  e59f10d8          LDR      r1,|L1.924|
0002c0  e5911000          LDR      r1,[r1,#0]            ;154  ; pTimerGetInterface
0002c4  e5910000          LDR      r0,[r1,#0]            ;154
0002c8  e12fff30          BLX      r0                    ;154
0002cc  e3500000          CMP      r0,#0                 ;154
0002d0  1a00004d          BNE      |L1.1036|
0002d4  e28f00f8          ADR      r0,|L1.980|
0002d8  ebfffffe          BL       sysprintf
0002dc  e3a00000          MOV      r0,#0                 ;157
0002e0  eaffffda          B        |L1.592|
                  |L1.740|
                          DCD      guiDrvIgnoreRun
                  |L1.744|
                          DCD      pUserGuiInstance
                  |L1.748|
                          DCD      pKeyGetInterface
                  |L1.752|
0002f0  47554954          DCB      "GUITimerCallbackFunc : ignore!!\n",0
0002f4  696d6572
0002f8  43616c6c
0002fc  6261636b
000300  46756e63
000304  203a2069
000308  676e6f72
00030c  6521210a
000310  00      
000311  00                DCB      0
000312  00                DCB      0
000313  00                DCB      0
                  |L1.788|
                          DCD      pGuiTimerCallbackFunc
                  |L1.792|
                          DCD      pGuiKeyCallbackFunc
                  |L1.796|
00031c  47554944          DCB      "GUIDrvInit!!\n",0
000320  7276496e
000324  69742121
000328  0a00    
00032a  00                DCB      0
00032b  00                DCB      0
                  |L1.812|
                          DCD      guiDrvPowerCallabck
                  |L1.816|
000330  47554944          DCB      "GUIDrvInit ERROR (pKeyGetInterface == NULL)!!\n",0
000334  7276496e
000338  69742045
00033c  52524f52
000340  2028704b
000344  65794765
000348  74496e74
00034c  65726661
000350  6365203d
000354  3d204e55
000358  4c4c2921
00035c  210a00  
00035f  00                DCB      0
                  |L1.864|
000360  47554944          DCB      "GUIDrvInit ERROR (pKeyGetInterface initFunc false)!!\n",0
000364  7276496e
000368  69742045
00036c  52524f52
000370  2028704b
000374  65794765
000378  74496e74
00037c  65726661
000380  63652069
000384  6e697446
000388  756e6320
00038c  66616c73
000390  65292121
000394  0a00    
000396  00                DCB      0
000397  00                DCB      0
                  |L1.920|
                          DCD      GUIKeyCallbackFunc
                  |L1.924|
                          DCD      pTimerGetInterface
                  |L1.928|
0003a0  47554944          DCB      "GUIDrvInit ERROR (pTimerGetInterface == NULL)!!\n",0
0003a4  7276496e
0003a8  69742045
0003ac  52524f52
0003b0  20287054
0003b4  696d6572
0003b8  47657449
0003bc  6e746572
0003c0  66616365
0003c4  203d3d20
0003c8  4e554c4c
0003cc  2921210a
0003d0  00      
0003d1  00                DCB      0
0003d2  00                DCB      0
0003d3  00                DCB      0
                  |L1.980|
0003d4  47554944          DCB      "GUIDrvInit ERROR (pTimerGetInterface initFunc false)!!\n"
0003d8  7276496e
0003dc  69742045
0003e0  52524f52
0003e4  20287054
0003e8  696d6572
0003ec  47657449
0003f0  6e746572
0003f4  66616365
0003f8  20696e69
0003fc  7446756e
000400  63206661
000404  6c736529
000408  21210a  
00040b  00                DCB      0
                  |L1.1036|
00040c  e51f0078          LDR      r0,|L1.924|
000410  e5900000          LDR      r0,[r0,#0]            ;159  ; pTimerGetInterface
000414  e590100c          LDR      r1,[r0,#0xc]          ;159
000418  e59f00fc          LDR      r0,|L1.1308|
00041c  e12fff31          BLX      r1                    ;159
000420  e3a00001          MOV      r0,#1                 ;160
000424  eaffff89          B        |L1.592|
;;;162    
                          ENDP

                  GuiSetKeyCallbackFunc PROC
;;;163    void GuiSetKeyCallbackFunc(guiKeyCallbackFunc callback)
000428  e51f1118          LDR      r1,|L1.792|
;;;164    {
;;;165        pGuiKeyCallbackFunc = callback;
00042c  e5810000          STR      r0,[r1,#0]  ; pGuiKeyCallbackFunc
;;;166    }
000430  e12fff1e          BX       lr
;;;167    void GuiSetTimerCallbackFunc(guiTimerCallbackFunc callback)
                          ENDP

                  GuiSetTimerCallbackFunc PROC
000434  e51f1128          LDR      r1,|L1.788|
;;;168    {
;;;169        pGuiTimerCallbackFunc = callback;
000438  e5810000          STR      r0,[r1,#0]  ; pGuiTimerCallbackFunc
;;;170    }
00043c  e12fff1e          BX       lr
;;;171    void GuiSetTimeout(uint8_t timerIndex, TickType_t time)
                          ENDP

                  GuiSetTimeout PROC
000440  e92d4070          PUSH     {r4-r6,lr}
;;;172    {
000444  e1a04000          MOV      r4,r0
000448  e1a05001          MOV      r5,r1
;;;173        pTimerGetInterface->setTimeoutFunc(timerIndex, time);
00044c  e51f00b8          LDR      r0,|L1.924|
000450  e5900000          LDR      r0,[r0,#0]  ; pTimerGetInterface
000454  e1a01005          MOV      r1,r5
000458  e5902004          LDR      r2,[r0,#4]
00045c  e1a00004          MOV      r0,r4
000460  e12fff32          BLX      r2
;;;174    }
000464  e8bd8070          POP      {r4-r6,pc}
;;;175    void GuiRunTimeoutFunc(uint8_t timerIndex)
                          ENDP

                  GuiRunTimeoutFunc PROC
000468  e92d4010          PUSH     {r4,lr}
;;;176    {
00046c  e1a04000          MOV      r4,r0
;;;177        pTimerGetInterface->runFunc(timerIndex);
000470  e51f00dc          LDR      r0,|L1.924|
000474  e5900000          LDR      r0,[r0,#0]  ; pTimerGetInterface
000478  e5901008          LDR      r1,[r0,#8]
00047c  e1a00004          MOV      r0,r4
000480  e12fff31          BLX      r1
;;;178    }
000484  e8bd8010          POP      {r4,pc}
;;;179    
                          ENDP

                  GuiSetInstance PROC
;;;180    
;;;181    BOOL GuiSetInstance(UserGuiInstance* instance, uint8_t oriGuiId, uint8_t reFreshPara, int para2, int para3)
000488  e92d41f0          PUSH     {r4-r8,lr}
;;;182    {
00048c  e1a04000          MOV      r4,r0
000490  e1a05001          MOV      r5,r1
000494  e1a06002          MOV      r6,r2
000498  e1a07003          MOV      r7,r3
00049c  e59d8018          LDR      r8,[sp,#0x18]
;;;183        sysprintf("  ==> GuiSetInstance\r\n");
0004a0  e28f0078          ADR      r0,|L1.1312|
0004a4  ebfffffe          BL       sysprintf
;;;184        TimerAllStop(); 
0004a8  ebfffffe          BL       TimerAllStop
;;;185        pGuiKeyCallbackFunc = NULL;
0004ac  e3a00000          MOV      r0,#0
0004b0  e51f11a0          LDR      r1,|L1.792|
0004b4  e5810000          STR      r0,[r1,#0]  ; pGuiKeyCallbackFunc
;;;186        pGuiTimerCallbackFunc = NULL;    
0004b8  e51f11ac          LDR      r1,|L1.788|
0004bc  e5810000          STR      r0,[r1,#0]  ; pGuiTimerCallbackFunc
;;;187        
;;;188        pUserGuiInstance = instance;   
0004c0  e51f01e0          LDR      r0,|L1.744|
0004c4  e5804000          STR      r4,[r0,#0]  ; pUserGuiInstance
;;;189        GuiSetKeyCallbackFunc(pUserGuiInstance->guiInstance->keyCallback);
0004c8  e2801000          ADD      r1,r0,#0
0004cc  e5911000          LDR      r1,[r1,#0]  ; pUserGuiInstance
0004d0  e5911004          LDR      r1,[r1,#4]
0004d4  e5910008          LDR      r0,[r1,#8]
0004d8  ebfffffe          BL       GuiSetKeyCallbackFunc
;;;190        GuiSetTimerCallbackFunc(pUserGuiInstance->guiInstance->timerCallback);    
0004dc  e51f11fc          LDR      r1,|L1.744|
0004e0  e5911000          LDR      r1,[r1,#0]  ; pUserGuiInstance
0004e4  e5911004          LDR      r1,[r1,#4]
0004e8  e591000c          LDR      r0,[r1,#0xc]
0004ec  ebfffffe          BL       GuiSetTimerCallbackFunc
;;;191        pUserGuiInstance->guiInstance->onDraw(oriGuiId, reFreshPara, para2, para3);
0004f0  e51f0210          LDR      r0,|L1.744|
0004f4  e5900000          LDR      r0,[r0,#0]  ; pUserGuiInstance
0004f8  e5900004          LDR      r0,[r0,#4]
0004fc  e1a03008          MOV      r3,r8
000500  e1a02007          MOV      r2,r7
000504  e1a01006          MOV      r1,r6
000508  e590c000          LDR      r12,[r0,#0]
00050c  e1a00005          MOV      r0,r5
000510  e12fff3c          BLX      r12
;;;192        
;;;193        return TRUE;
000514  e3a00001          MOV      r0,#1
;;;194    }
000518  e8bd81f0          POP      {r4-r8,pc}
;;;195    
                          ENDP

                  |L1.1308|
                          DCD      GUITimerCallbackFunc
                  |L1.1312|
000520  20203d3d          DCB      "  ==> GuiSetInstance\r\n",0
000524  3e204775
000528  69536574
00052c  496e7374
000530  616e6365
000534  0d0a00  
000537  00                DCB      0

                          AREA ||.conststring||, DATA, READONLY, MERGE=1, STRINGS, ALIGN=0

000000  205b4755          DCB      " [GUIDrv] ",0
000004  49447276
000008  5d2000  

                          AREA ||.data||, DATA, ALIGN=2

                  pTimerGetInterface
                          DCD      0x00000000
                  pKeyGetInterface
                          DCD      0x00000000
                  pGuiTimerCallbackFunc
                          DCD      0x00000000
                  pGuiKeyCallbackFunc
                          DCD      0x00000000
                  pUserGuiInstance
                          DCD      0x00000000
                  guiDrvIgnoreRun
000014  00000000          DCB      0x00,0x00,0x00,0x00
                  guiDrvPowerCallabck
                          DCD      ||.conststring||
                          DCD      guiDrvPreOffCallback
                          DCD      guiDrvOffCallback
                          DCD      guiDrvOnCallback
                          DCD      guiDrvCheckStatus
